(dp0
S'gripper_link'
p1
I51
sS'robot'
p2
S'pr2'
p3
sS'filename'
p4
S'side_right_ir.pickle'
p5
sS'carry_conf'
p6
cnumpy.core.multiarray
_reconstruct
p7
(cnumpy
ndarray
p8
(I0
tp9
S'b'
p10
tp11
Rp12
(I1
(I7
tp13
cnumpy
dtype
p14
(S'f8'
p15
I0
I1
tp16
Rp17
(I3
S'<'
p18
NNNI-1
I-1
I0
tp19
bI00
S'\x97 ~Y5#\xd9\xbf\t\x9f\xb5\xf4\xcbT\xd5?\x00\x00\x00\x00\x00\x00\x00\x80\xe2Kv\xa6\xaf[\xf8\xbf\x04.\x1b\xdf\x0f\xc6\x05\xc0\xe9\xc8\xbaM\xf2\x82\xf3\xbfw\xaf\x07Q\xc6\xe9\x07\xc0'
p20
tp21
bsS'arg'
p22
S'right'
p23
sS'grasp_type'
p24
S'side'
p25
sS'gripper_from_base'
p26
(lp27
((F-0.4462278485298157
F0.06851813197135925
F-0.7021018266677856
tp28
(F3.260419543948956e-05
F-0.0001346247154287994
F0.05798329785466194
F0.9983174800872803
tp29
tp30
a((F-0.06993699073791504
F0.6634289026260376
F-0.7020562291145325
tp31
(F-7.504504173994064e-05
F3.6664197978097945e-05
F0.27681517601013184
F0.9609231352806091
tp32
tp33
a((F-0.2664300799369812
F0.6021902561187744
F-0.7018166780471802
tp34
(F-4.907832590106409e-06
F-8.43621528474614e-05
F-0.4118245244026184
F0.9112631678581238
tp35
tp36
a((F-0.14022189378738403
F0.30544325709342957
F-0.7020721435546875
tp37
(F3.985666990047321e-05
F-0.00013220901018939912
F-0.6103240847587585
F0.7921518683433533
tp38
tp39
a((F-0.5053012371063232
F-0.49144333600997925
F-0.7018101811408997
tp40
(F1.0243995347991586e-05
F-5.750755735789426e-05
F0.5675879716873169
F0.8233126997947693
tp41
tp42
a((F-0.13599595427513123
F0.8840681314468384
F-0.7017440795898438
tp43
(F-3.578047835617326e-05
F-1.0383585504314397e-05
F0.03959936648607254
F0.9992156624794006
tp44
tp45
a((F-0.22878548502922058
F-0.3331204056739807
F-0.7020335793495178
tp46
(F6.125253275968134e-05
F-6.089255111874081e-05
F0.48819783329963684
F0.8727329969406128
tp47
tp48
a((F-0.2551048696041107
F-0.48569226264953613
F-0.7016013860702515
tp49
(F3.0089086067164317e-05
F-2.221279100922402e-05
F0.3550914525985718
F0.9348315596580505
tp50
tp51
a((F-0.16667479276657104
F0.24350734055042267
F-0.702051043510437
tp52
(F5.972755025140941e-05
F-0.00012074491678504273
F-0.6994031667709351
F0.7147274017333984
tp53
tp54
a((F-0.3943604826927185
F0.12647801637649536
F-0.7015488743782043
tp55
(F3.845296669169329e-05
F-6.444694008678198e-05
F-0.12601126730442047
F0.9920288324356079
tp56
tp57
a((F-0.29295894503593445
F-0.7052682042121887
F-0.7018797993659973
tp58
(F7.937106261124427e-07
F-6.230278813745826e-05
F0.8845654129981995
F0.46641623973846436
tp59
tp60
a((F-0.469666063785553
F-0.37549668550491333
F-0.7018977403640747
tp61
(F2.5019277018145658e-05
F-7.584489503642544e-05
F0.3707573115825653
F0.928729772567749
tp62
tp63
a((F-0.3014618754386902
F0.5816716551780701
F-0.7021501064300537
tp64
(F-2.3038122890284285e-05
F-0.00014311818813439459
F-0.2305583655834198
F0.9730585217475891
tp65
tp66
a((F-0.3121787905693054
F0.6153160333633423
F-0.7021584510803223
tp67
(F-8.381061343243346e-05
F-9.469964425079525e-05
F0.12800262868404388
F0.991773784160614
tp68
tp69
a((F0.05856013298034668
F-0.6526123881340027
F-0.7021130323410034
tp70
(F4.551936945063062e-05
F-7.75024454924278e-05
F0.982134997844696
F0.1881774365901947
tp71
tp72
a((F-0.5727189779281616
F0.05247054994106293
F-0.7021194100379944
tp73
(F-4.760912361234659e-06
F-0.00013076158938929439
F0.2704411745071411
F0.9627365469932556
tp74
tp75
a((F-0.4710058569908142
F0.2497606873512268
F-0.7017521858215332
tp76
(F3.3197062293766066e-05
F-4.5632230467163026e-05
F-0.3961990773677826
F0.9181646704673767
tp77
tp78
a((F-0.3370974063873291
F-0.1459866464138031
F-0.7020742893218994
tp79
(F6.17059413343668e-05
F-0.00011648151848930866
F0.00206643040291965
F0.9999978542327881
tp80
tp81
a((F-0.0328405499458313
F-0.7313841581344604
F-0.7016062140464783
tp82
(F2.4270688300020993e-05
F-2.819603651005309e-05
F0.8920555710792542
F0.4519258737564087
tp83
tp84
a((F-0.33605676889419556
F0.48097994923591614
F-0.7021428942680359
tp85
(F-4.1582454286981374e-05
F-0.0001393754646414891
F-0.0455254428088665
F0.9989631772041321
tp86
tp87
a((F-0.6868382096290588
F0.09459930658340454
F-0.7016741037368774
tp88
(F-1.891258216346614e-05
F-4.6555545850424096e-05
F0.15729549527168274
F0.9875516295433044
tp89
tp90
a((F-0.19295823574066162
F-0.3698365092277527
F-0.7020585536956787
tp91
(F6.814637163188308e-05
F-5.2603689255192876e-05
F0.5719079971313477
F0.8203176856040955
tp92
tp93
a((F-0.18893194198608398
F0.36485373973846436
F-0.7020940780639648
tp94
(F5.971141945337877e-05
F-0.00014228303916752338
F-0.6583099365234375
F0.7527469992637634
tp95
tp96
a((F0.039032287895679474
F0.7388336658477783
F-0.701608419418335
tp97
(F-2.534478517191019e-05
F-3.357938112458214e-05
F-0.41462084650993347
F0.9099942445755005
tp98
tp99
a((F-0.6588627099990845
F0.18001335859298706
F-0.7017019987106323
tp100
(F-9.202937690133695e-06
F-4.7176181396935135e-05
F0.16543696820735931
F0.9862203598022461
tp101
tp102
a((F-0.2503698468208313
F0.22505497932434082
F-0.7020684480667114
tp103
(F2.7478012270876206e-05
F-0.00011476913641672581
F-0.5168624520301819
F0.8560684323310852
tp104
tp105
a((F-0.5386121273040771
F0.55652916431427
F-0.70207279920578
tp106
(F-0.00010232172644464299
F-2.8402086172718555e-05
F0.598457932472229
F0.8011542558670044
tp107
tp108
a((F-0.38159409165382385
F-0.4893849492073059
F-0.7019904255867004
tp109
(F9.108116501010954e-06
F-8.816862100502476e-05
F0.7095445990562439
F0.7046606540679932
tp110
tp111
a((F-0.1710081696510315
F-0.37370896339416504
F-0.7020003199577332
tp112
(F6.832928920630366e-05
F-4.4951579184271395e-05
F0.6039347648620605
F0.7970339059829712
tp113
tp114
a((F-0.1303810477256775
F0.5365297794342041
F-0.7017989754676819
tp115
(F1.2892512131656986e-05
F-6.554674473591149e-05
F-0.7607046961784363
F0.6490982174873352
tp116
tp117
a((F-0.4740411639213562
F-0.14249394834041595
F-0.7021437883377075
tp118
(F3.4808158488885965e-06
F-0.00014035515778232366
F0.3820124566555023
F0.9241570830345154
tp119
tp120
a((F0.07255727052688599
F0.8537810444831848
F-0.7016400098800659
tp121
(F-3.659360299934633e-05
F2.007575130846817e-05
F0.1293233335018158
F0.9916025400161743
tp122
tp123
a((F-0.6422039270401001
F-0.3405947983264923
F-0.7021990418434143
tp124
(F-5.076847082818858e-05
F-0.00013604895502794534
F0.6583386659622192
F0.7527218461036682
tp125
tp126
a((F-0.4051767587661743
F0.28526756167411804
F-0.7020986676216125
tp127
(F2.707044404814951e-05
F-0.00010756540723377839
F-0.33250901103019714
F0.9431001543998718
tp128
tp129
a((F0.415344774723053
F0.7308250665664673
F-0.7016062140464783
tp130
(F-3.761540210689418e-05
F3.0286514629551675e-06
F-0.42211806774139404
F0.9065408110618591
tp131
tp132
a((F-0.4091212749481201
F0.5985506176948547
F-0.7021602988243103
tp133
(F-5.52320561837405e-05
F-0.00013258504623081535
F0.014338720589876175
F0.9998972415924072
tp134
tp135
a((F0.17350256443023682
F-0.6055261492729187
F-0.7020989656448364
tp136
(F8.166389307007194e-05
F-6.521431350847706e-05
F0.986386775970459
F0.16444192826747894
tp137
tp138
a((F-0.20800650119781494
F-0.7005400657653809
F-0.7015649080276489
tp139
(F1.5483748939004727e-05
F-2.249005774501711e-05
F0.7715422511100769
F0.6361779570579529
tp140
tp141
a((F0.29298263788223267
F0.48823976516723633
F-0.7016879916191101
tp142
(F-2.637223224155605e-05
F-4.052892472827807e-05
F-0.8445507884025574
F0.535475492477417
tp143
tp144
a((F0.019947201013565063
F0.5209146738052368
F-0.7015606164932251
tp145
(F-5.166282335267169e-06
F3.6848505260422826e-05
F0.9076895713806152
F-0.4196423292160034
tp146
tp147
a((F-0.04480630159378052
F0.7234660387039185
F-0.7021195888519287
tp148
(F-8.377018821192905e-05
F-2.1557152649620548e-05
F0.00837154220789671
F0.9999650120735168
tp149
tp150
a((F-0.3703867197036743
F-0.23245251178741455
F-0.7020680904388428
tp151
(F4.3402000301284716e-05
F-0.00010861488408409059
F0.26156994700431824
F0.9651845097541809
tp152
tp153
a((F0.12297108769416809
F-0.7413533926010132
F-0.7015649080276489
tp154
(F2.5891769837471657e-05
F-1.856661037891172e-05
F0.9180872440338135
F0.3963784873485565
tp155
tp156
a((F-0.6405472755432129
F-0.2721478343009949
F-0.7022067308425903
tp157
(F-5.317058094078675e-05
F-0.00014389764692168683
F0.6119744181632996
F0.7908775806427002
tp158
tp159
a((F-0.31859391927719116
F0.2921731472015381
F-0.7020785212516785
tp160
(F4.819024616153911e-05
F-0.00011749581608455628
F-0.4939357340335846
F0.8694984316825867
tp161
tp162
a((F-0.48099207878112793
F-0.4305317997932434
F-0.7021400332450867
tp163
(F-4.2290874262107536e-05
F-0.00011898528464371338
F0.7910111546516418
F0.61180180311203
tp164
tp165
a((F-0.30092090368270874
F0.14975348114967346
F-0.7010848522186279
tp166
(F2.4625762307550758e-05
F2.4340722575288964e-06
F-0.47528427839279175
F0.87983238697052
tp167
tp168
a((F-0.625211238861084
F0.06419721245765686
F-0.702081561088562
tp169
(F-1.5367208106908947e-05
F-0.00011219578300369903
F0.1855691522359848
F0.9826313257217407
tp170
tp171
a((F-0.2903422713279724
F0.565318763256073
F-0.7021098732948303
tp172
(F-6.985419167904183e-05
F-0.0001077478809747845
F0.05383582413196564
F0.9985498189926147
tp173
tp174
a((F-0.21343475580215454
F-0.41061121225357056
F-0.7017229199409485
tp175
(F4.628911483450793e-05
F-3.073889820370823e-05
F0.40748533606529236
F0.9132118225097656
tp176
tp177
a((F-0.4267973303794861
F-0.2536502778530121
F-0.7021079063415527
tp178
(F2.006054637604393e-05
F-0.00012205766688566655
F0.42098334431648254
F0.9070684313774109
tp179
tp180
a((F-0.27721214294433594
F-0.5644203424453735
F-0.7016957998275757
tp181
(F2.5961324354284443e-05
F-4.0145769162336364e-05
F0.6580382585525513
F0.7529845833778381
tp182
tp183
a((F-0.5355494022369385
F-0.4179028272628784
F-0.702187180519104
tp184
(F-8.355003228643909e-05
F-0.00011502328561618924
F0.8647598028182983
F0.5021856427192688
tp185
tp186
a((F-0.7401049137115479
F-0.156232088804245
F-0.7018123865127563
tp187
(F-5.4334486776497215e-05
F-4.771739986608736e-05
F0.8670763373374939
F0.49817514419555664
tp188
tp189
a((F-0.20363634824752808
F0.7131996750831604
F-0.7019736766815186
tp190
(F-7.624331919942051e-05
F-9.327739462605678e-06
F0.2511017918586731
F0.9679607152938843
tp191
tp192
a((F-0.1535472273826599
F0.8220404386520386
F-0.7018324732780457
tp193
(F-5.482460983330384e-05
F4.197760972601827e-06
F0.22046934068202972
F0.9753939509391785
tp194
tp195
a((F-0.39697620272636414
F0.2846173644065857
F-0.7018634080886841
tp196
(F2.226116521342192e-05
F-8.527931640855968e-05
F-0.3466781973838806
F0.9379841685295105
tp197
tp198
a((F-0.5641503930091858
F0.27712634205818176
F-0.7016902565956116
tp199
(F-2.5145882318611257e-05
F-6.367603782564402e-05
F0.14434432983398438
F0.9895275235176086
tp200
tp201
a((F-0.4419192671775818
F-0.09131604433059692
F-0.7021088004112244
tp202
(F2.398146352788899e-05
F-0.0001390111428918317
F0.19984759390354156
F0.9798270463943481
tp203
tp204
a((F-0.430411696434021
F-0.27169162034988403
F-0.7021334767341614
tp205
(F2.486755147401709e-05
F-0.0001222810969920829
F0.3976350724697113
F0.9175436496734619
tp206
tp207
a((F-0.3655102849006653
F0.599868655204773
F-0.7021605968475342
tp208
(F-9.874834358925e-05
F-6.961915642023087e-05
F0.29827868938446045
F0.9544788599014282
tp209
tp210
a((F-0.44703274965286255
F-0.5760791301727295
F-0.7021831274032593
tp211
(F-6.938055594218895e-05
F-0.00010779612057376653
F0.9160205125808716
F0.401131272315979
tp212
tp213
a((F-0.19152739644050598
F0.38627102971076965
F-0.702000617980957
tp214
(F6.334398494800553e-05
F-0.00011172200174769387
F-0.8144207000732422
F0.580274760723114
tp215
tp216
a((F-0.20322708785533905
F0.24942058324813843
F-0.7020848393440247
tp217
(F9.202850924339145e-05
F-0.00012029652862111107
F-0.8108252286911011
F0.5852882862091064
tp218
tp219
a((F-0.17137247323989868
F0.7119349241256714
F-0.7019287943840027
tp220
(F-6.585068331332877e-05
F-4.9088834202848375e-05
F0.023218229413032532
F0.9997304081916809
tp221
tp222
a((F0.09310933947563171
F-0.6578687429428101
F-0.7016370892524719
tp223
(F4.240705311531201e-05
F-1.84631826414261e-05
F0.8581694960594177
F0.5133665800094604
tp224
tp225
a((F-0.2564380168914795
F-0.7564672231674194
F-0.7017232179641724
tp226
(F2.7522935397428228e-06
F-4.465935853659175e-05
F0.9057938456535339
F0.42371875047683716
tp227
tp228
a((F-0.4475941061973572
F0.42136770486831665
F-0.7021414041519165
tp229
(F-6.560290785273537e-05
F-0.0001230729540111497
F0.1833730787038803
F0.983043372631073
tp230
tp231
a((F-0.29640012979507446
F-0.48655271530151367
F-0.7016159296035767
tp232
(F2.8054839276592247e-05
F-3.238478166167624e-05
F0.4721202254295349
F0.8815342783927917
tp233
tp234
a((F-0.3325209617614746
F0.7279462814331055
F-0.7018426060676575
tp235
(F-5.569223139900714e-05
F-5.433139085653238e-05
F0.10075695067644119
F0.9949110746383667
tp236
tp237
a((F0.10973882675170898
F0.790157675743103
F-0.7015807032585144
tp238
(F-2.8948114049853757e-05
F-1.877065369626507e-05
F-0.3468659222126007
F0.9379147887229919
tp239
tp240
a((F-0.5409934520721436
F0.6851027011871338
F-0.7017937302589417
tp241
(F-5.735510785598308e-05
F-3.7863726902287453e-05
F0.36495429277420044
F0.9310254454612732
tp242
tp243
a((F-0.49248796701431274
F0.2632519602775574
F-0.7015454173088074
tp244
(F-3.052379179280251e-05
F-4.972435999661684e-05
F0.09502241760492325
F0.9954751133918762
tp245
tp246
a((F-0.2287282943725586
F0.5186924934387207
F-0.7021135687828064
tp247
(F7.225366061902605e-06
F-0.00014667355571873486
F-0.41772887110710144
F0.908571720123291
tp248
tp249
a((F-0.7000279426574707
F0.05433964729309082
F-0.7016907334327698
tp250
(F-7.887998799560592e-05
F-2.3096516088116914e-05
F0.7967846989631653
F0.604263186454773
tp251
tp252
a((F-0.27501702308654785
F-0.29091984033584595
F-0.7020303606987
tp253
(F6.009051503497176e-05
F-7.296391413547099e-05
F0.2828521728515625
F0.9591635465621948
tp254
tp255
a((F-0.17166507244110107
F-0.32906049489974976
F-0.7018981575965881
tp256
(F6.590467819478363e-05
F-3.1825849873712286e-05
F0.34618449211120605
F0.9381664991378784
tp257
tp258
a((F0.17910903692245483
F0.49375420808792114
F-0.7020363211631775
tp259
(F-3.593444125726819e-05
F-8.213667751988396e-05
F-0.6770802736282349
F0.735909104347229
tp260
tp261
a((F0.06546175479888916
F-0.86733478307724
F-0.7015576362609863
tp262
(F1.325012704000983e-06
F-2.9946279028081335e-05
F0.9995801448822021
F0.02897309511899948
tp263
tp264
a((F-0.13607603311538696
F-0.5374240875244141
F-0.7015553116798401
tp265
(F2.9062905014143325e-05
F-1.049804541253252e-05
F0.4252290427684784
F0.9050858020782471
tp266
tp267
a((F-0.06296247243881226
F0.5051653981208801
F-0.7020444273948669
tp268
(F3.2034645300882403e-06
F-0.00012409480405040085
F-0.5702270269393921
F0.8214871287345886
tp269
tp270
a((F0.23418694734573364
F-0.730113685131073
F-0.7019315361976624
tp271
(F2.713028879952617e-05
F-6.985560321481898e-05
F0.9895877242088318
F-0.143931046128273
tp272
tp273
a((F-0.6872814297676086
F0.0693550780415535
F-0.7018848657608032
tp274
(F-2.110450077452697e-05
F-7.304376049432904e-05
F0.5634620785713196
F0.8261420130729675
tp275
tp276
a((F-0.2021832913160324
F-0.8008599281311035
F-0.7015728950500488
tp277
(F4.403511013606476e-07
F-3.369558180565946e-05
F0.9448548555374146
F0.32748934626579285
tp278
tp279
a((F-0.40903228521347046
F0.5504673719406128
F-0.702153205871582
tp280
(F-5.236664219410159e-05
F-0.0001397050655214116
F0.026786088943481445
F0.9996412396430969
tp281
tp282
a((F-0.4755396842956543
F0.0762423723936081
F-0.7018910646438599
tp283
(F3.0428342142840847e-05
F-0.00010104004468303174
F-0.1416175663471222
F0.9899214506149292
tp284
tp285
a((F-0.49494969844818115
F0.20769695937633514
F-0.701529324054718
tp286
(F2.2083857402321883e-05
F-2.3402031729347073e-05
F-0.4135127067565918
F0.9104982614517212
tp287
tp288
a((F0.45447325706481934
F0.5675614476203918
F-0.7019839286804199
tp289
(F-8.08511467766948e-05
F6.906996645739127e-07
F-0.5737804174423218
F0.8190091848373413
tp290
tp291
a((F-0.785319983959198
F0.13824677467346191
F-0.7020400166511536
tp292
(F-9.497605060460046e-05
F-6.457954441430047e-05
F0.7671844959259033
F0.6414265036582947
tp293
tp294
a((F-0.1961396038532257
F0.522978663444519
F-0.7019197344779968
tp295
(F1.670830351940822e-05
F-0.00010619014210533351
F-0.5836806893348694
F0.8119833469390869
tp296
tp297
a((F-0.26947951316833496
F0.6885985732078552
F-0.7019428610801697
tp298
(F-3.0853250791551545e-05
F-8.453702321276069e-05
F-0.2259960025548935
F0.9741281867027283
tp299
tp300
a((F-0.7364907264709473
F0.061101555824279785
F-0.7016333341598511
tp301
(F-2.4333590772585012e-05
F-4.154338967055082e-05
F0.3110630512237549
F0.9503893256187439
tp302
tp303
a((F-0.5276485681533813
F0.3921877145767212
F-0.7021440267562866
tp304
(F-3.237305281800218e-05
F-0.0001316665584454313
F0.09902215003967285
F0.9950852394104004
tp305
tp306
a((F-0.41856181621551514
F0.24414466321468353
F-0.7018357515335083
tp307
(F-8.298799002659507e-06
F-7.180484681157395e-05
F-0.12868019938468933
F0.9916861653327942
tp308
tp309
a((F-0.011889994144439697
F0.4948597252368927
F-0.7020453810691833
tp310
(F-2.001432039833162e-05
F-0.00011477036605356261
F-0.4883049726486206
F0.8726730346679688
tp311
tp312
a((F-0.3625616431236267
F-0.32548776268959045
F-0.7017735838890076
tp313
(F4.199915565550327e-05
F-5.7843877584673464e-05
F0.13726095855236053
F0.9905350208282471
tp314
tp315
a((F-0.2687094211578369
F0.5773581862449646
F-0.7021123170852661
tp316
(F-2.6667072233976796e-05
F-0.00013769743964076042
F-0.22522801160812378
F0.974306046962738
tp317
tp318
a((F-0.014178633689880371
F-0.5034908652305603
F-0.7018858790397644
tp319
(F7.384779019048437e-05
F-9.617439900466707e-06
F0.6387025713920593
F0.7694537043571472
tp320
tp321
a((F0.3585653305053711
F0.5329886078834534
F-0.7020667195320129
tp322
(F-9.332419722341001e-05
F1.2355659237073269e-05
F-0.444927453994751
F0.8955666422843933
tp323
tp324
a((F-0.24038678407669067
F-0.5379036068916321
F-0.7015849351882935
tp325
(F2.691138070076704e-05
F-2.2180664018378593e-05
F0.49591130018234253
F0.8683730959892273
tp326
tp327
a((F-0.17719370126724243
F0.3878884017467499
F-0.7020922303199768
tp328
(F5.262739068712108e-05
F-0.00014282987103797495
F-0.6472492814064026
F0.7622782588005066
tp329
tp330
a((F-0.5644707083702087
F0.24996347725391388
F-0.701734721660614
tp331
(F-3.1523688903689617e-06
F-5.653705738950521e-05
F0.016756219789385796
F0.999859631061554
tp332
tp333
a((F-0.5521767139434814
F0.26676756143569946
F-0.7016463279724121
tp334
(F8.3526592788985e-06
F-4.856955638388172e-05
F-0.09334566444158554
F0.9956337213516235
tp335
tp336
a((F-0.04369170591235161
F0.600135087966919
F-0.7015765309333801
tp337
(F-1.0017485010394012e-06
F-4.074625394423492e-05
F-0.7193734645843506
F0.6946235299110413
tp338
tp339
a((F-0.3453204035758972
F0.738603413105011
F-0.7019388675689697
tp340
(F-6.044271867722273e-05
F-5.8157515013590455e-05
F0.10410850495100021
F0.9945659637451172
tp341
tp342
a((F-0.2881086468696594
F-0.2601058781147003
F-0.7020299434661865
tp343
(F5.056835288996808e-05
F-8.432897448074073e-05
F0.3700289726257324
F0.9290201663970947
tp344
tp345
a((F-0.07325875759124756
F0.40067920088768005
F-0.7018632292747498
tp346
(F-4.159371746936813e-05
F8.983155566966161e-05
F0.8724003434181213
F-0.4887920618057251
tp347
tp348
a((F-0.3208081126213074
F-0.45611268281936646
F-0.7016511559486389
tp349
(F2.9906472263974138e-05
F-3.1108524126466364e-05
F0.3215569853782654
F0.9468901753425598
tp350
tp351
a((F-0.5857018232345581
F-0.2856295108795166
F-0.7019091248512268
tp352
(F5.33773436472984e-06
F-9.821179992286488e-05
F0.3828592300415039
F0.9238066673278809
tp353
tp354
a((F-0.6176098585128784
F-0.323529452085495
F-0.7021369338035583
tp355
(F-0.00010632209159666672
F-5.0104288675356656e-05
F0.979719877243042
F0.20037232339382172
tp356
tp357
a((F-0.3801880478858948
F-0.771332859992981
F-0.7015919089317322
tp358
(F-6.6090578911826015e-06
F-3.309378371341154e-05
F0.9181414246559143
F0.3962528705596924
tp359
tp360
a((F-0.7793842554092407
F0.15625667572021484
F-0.7022243738174438
tp361
(F-0.00011767657269956544
F-7.669079059269279e-05
F0.7750668525695801
F0.6318793296813965
tp362
tp363
a((F-0.2729134261608124
F-0.37817877531051636
F-0.7019085884094238
tp364
(F5.468623203341849e-05
F-4.815290594706312e-05
F0.25097131729125977
F0.9679944515228271
tp365
tp366
a((F-0.06673979759216309
F0.3933999836444855
F-0.7020408511161804
tp367
(F3.0829683964839205e-05
F-0.00012888156925328076
F-0.6826051473617554
F0.7307875156402588
tp368
tp369
a((F-0.585694432258606
F0.03971952199935913
F-0.7021328210830688
tp370
(F-1.3383014447754249e-05
F-0.0001302888704231009
F0.3974607288837433
F0.9176192283630371
tp371
tp372
a((F0.1561371386051178
F0.6588159799575806
F-0.7015968561172485
tp373
(F-1.77118054125458e-05
F-3.176752579747699e-05
F-0.6602142453193665
F0.7510772347450256
tp374
tp375
a((F-0.4177227318286896
F-0.6296805739402771
F-0.7020304203033447
tp376
(F-1.956218147824984e-05
F-8.6636544438079e-05
F0.8560253381729126
F0.5169339776039124
tp377
tp378
a((F-0.3891092836856842
F0.6919230222702026
F-0.7020766735076904
tp379
(F-7.848535460652784e-05
F-7.155382627388462e-05
F0.1921461969614029
F0.9813663363456726
tp380
tp381
a((F0.04807162284851074
F-0.4721398651599884
F-0.7020725011825562
tp382
(F0.00010863528586924076
F-1.4352236576087307e-05
F0.7969983220100403
F0.6039817929267883
tp383
tp384
a((F-0.5091442465782166
F-0.6922012567520142
F-0.701836884021759
tp385
(F-6.533862324431539e-05
F-5.2011640946147963e-05
F0.985402524471283
F0.1702406108379364
tp386
tp387
a((F-0.8058937191963196
F-0.07805222272872925
F-0.7018417119979858
tp388
(F-4.866117888013832e-05
F-3.9320722862612456e-05
F0.7883576154708862
F0.6152172684669495
tp389
tp390
a((F-0.06944930553436279
F0.7782406806945801
F-0.7017658948898315
tp391
(F-4.778029688168317e-05
F-3.1756077078171074e-05
F-0.11219357699155807
F0.993686318397522
tp392
tp393
a((F0.456540584564209
F0.6293571591377258
F-0.7020498514175415
tp394
(F-8.735177107155323e-05
F4.1344093915540725e-05
F-0.36601436138153076
F0.9306092262268066
tp395
tp396
a((F-0.10839414596557617
F0.765074610710144
F-0.701661229133606
tp397
(F-2.2370999431586824e-05
F-3.7024055927759036e-05
F-0.33181923627853394
F0.943342924118042
tp398
tp399
a((F-0.46265214681625366
F0.49869096279144287
F-0.7021574974060059
tp400
(F-0.00011349566193530336
F-4.788871228811331e-05
F0.5324079990386963
F0.846487820148468
tp401
tp402
a((F-0.47194182872772217
F0.1863914430141449
F-0.701707124710083
tp403
(F1.7365668099955656e-05
F-5.241006874712184e-05
F-0.23558445274829865
F0.9718537926673889
tp404
tp405
a((F-0.5300697088241577
F0.19003847241401672
F-0.7012635469436646
tp406
(F2.2393134713638574e-05
F-3.078074587392621e-05
F0.19388186931610107
F0.9810248613357544
tp407
tp408
a((F0.38587188720703125
F-0.7967362999916077
F-0.7017948627471924
tp409
(F2.489087091817055e-05
F-4.166566941421479e-05
F0.9888912439346313
F-0.14864107966423035
tp410
tp411
a((F0.06869477033615112
F-0.8973492383956909
F-0.7015413045883179
tp412
(F-4.236774657329079e-06
F-2.5999523131758906e-05
F0.9965876936912537
F-0.08254162967205048
tp413
tp414
a((F0.07379502058029175
F-0.4952545166015625
F-0.7020840644836426
tp415
(F0.00010947721602860838
F-2.4144590497598983e-05
F0.8598525524139404
F0.5105425715446472
tp416
tp417
a((F-0.18262606859207153
F0.8175457715988159
F-0.7017965912818909
tp418
(F-4.258619810570963e-05
F2.528396544221323e-05
F0.4256145656108856
F0.9049045443534851
tp419
tp420
a((F-0.27675479650497437
F-0.4482566714286804
F-0.7020238637924194
tp421
(F2.539142587920651e-05
F-8.30829594633542e-05
F0.7584235072135925
F0.6517620086669922
tp422
tp423
a((F-0.5116851329803467
F-0.342338502407074
F-0.7019090056419373
tp424
(F2.6364432414993644e-05
F-6.948243390070274e-05
F0.25880056619644165
F0.9659308195114136
tp425
tp426
a((F-0.5264058113098145
F-0.6884011030197144
F-0.7017836570739746
tp427
(F-4.1993647755589336e-05
F-5.4397994972532615e-05
F0.9483397603034973
F0.31725648045539856
tp428
tp429
a((F-0.4869004786014557
F0.23712027072906494
F-0.701630711555481
tp430
(F-3.870164437103085e-05
F-4.966079359292053e-05
F0.14302003383636475
F0.9897199273109436
tp431
tp432
a((F-0.378265380859375
F0.1314391791820526
F-0.7015541195869446
tp433
(F4.828836244996637e-05
F-6.414637755369768e-05
F-0.1816270798444748
F0.9833674430847168
tp434
tp435
a((F-0.4771062135696411
F-0.2515087425708771
F-0.7020402550697327
tp436
(F3.96740433643572e-05
F-0.00010736246622400358
F0.14094622433185577
F0.9900171756744385
tp437
tp438
a((F-0.738689124584198
F-0.09605738520622253
F-0.7018429636955261
tp439
(F-4.934443859383464e-05
F-6.704044062644243e-05
F0.7416902184486389
F0.6707424521446228
tp440
tp441
a((F-0.3579482436180115
F0.5820051431655884
F-0.7021599411964417
tp442
(F-3.1734987715026364e-05
F-0.00014406928676180542
F-0.1415131688117981
F0.9899362921714783
tp443
tp444
a((F-0.4308807849884033
F0.11132937669754028
F-0.7017496824264526
tp445
(F3.6667373933596537e-05
F-8.839552901918069e-05
F-0.06748839467763901
F0.9977201223373413
tp446
tp447
a((F-0.6733703017234802
F-0.0823531448841095
F-0.7021032571792603
tp448
(F-5.409407822298817e-05
F-0.00010761549492599443
F0.6736462712287903
F0.7390538454055786
tp449
tp450
a((F0.04211205244064331
F0.5823426246643066
F-0.7020164728164673
tp451
(F-4.450119013199583e-05
F-8.580164285376668e-05
F-0.41393980383872986
F0.9103043079376221
tp452
tp453
a((F-0.44960805773735046
F0.6641454100608826
F-0.7018635272979736
tp454
(F-7.290443318197504e-05
F-2.200990820711013e-05
F0.45690247416496277
F0.8895168900489807
tp455
tp456
a((F-0.6175311207771301
F-0.3177259564399719
F-0.7021892666816711
tp457
(F-9.082339965971187e-05
F-0.00011504309077281505
F0.8177791833877563
F0.5755321979522705
tp458
tp459
a((F-0.6890825033187866
F0.3233957290649414
F-0.7021958827972412
tp460
(F-8.060140680754557e-05
F-0.00011527183232828975
F0.46274885535240173
F0.8864893913269043
tp461
tp462
a((F0.4370882213115692
F0.6672652363777161
F-0.7018643617630005
tp463
(F-6.203201337484643e-05
F3.7414313283079537e-06
F-0.48373687267303467
F0.8752135038375854
tp464
tp465
a((F-0.42216402292251587
F0.5043485760688782
F-0.7021562457084656
tp466
(F-6.197456968948245e-05
F-0.00013352493988350034
F0.10827893018722534
F0.9941205382347107
tp467
tp468
a((F-0.48649489879608154
F-0.21156644821166992
F-0.7021122574806213
tp469
(F9.711376151244622e-06
F-0.00013441909686662257
F0.3746773600578308
F0.9271551966667175
tp470
tp471
a((F-0.48720985651016235
F-0.35598671436309814
F-0.7021139860153198
tp472
(F-3.2207663025474176e-05
F-0.00012149971735198051
F0.7208452820777893
F0.6930959224700928
tp473
tp474
a((F-0.006476759910583496
F0.44970279932022095
F-0.7020195722579956
tp475
(F4.588553565554321e-06
F-0.00011843864194815978
F-0.6315665245056152
F0.7753217220306396
tp476
tp477
a((F-0.20663446187973022
F0.6294488906860352
F-0.7019734978675842
tp478
(F-8.868466466083191e-06
F-8.973788499133661e-05
F-0.4607335329055786
F0.8875385522842407
tp479
tp480
a((F-0.12429523468017578
F0.36577868461608887
F-0.7020609974861145
tp481
(F3.9962924347491935e-05
F-0.00013614077761303633
F-0.6381482481956482
F0.7699134349822998
tp482
tp483
a((F-0.23854517936706543
F-0.49885985255241394
F-0.701634407043457
tp484
(F3.218401616322808e-05
F-2.2782442101743072e-05
F0.3993339240550995
F0.9168055057525635
tp485
tp486
a((F-0.7845443487167358
F0.06317996978759766
F-0.7017595767974854
tp487
(F-3.0344928745762445e-05
F-4.259950219420716e-05
F0.5668710470199585
F0.8238065242767334
tp488
tp489
a((F-0.5667434930801392
F-0.539518415927887
F-0.7019651532173157
tp490
(F-3.190489951521158e-05
F-8.799819624982774e-05
F0.7982146143913269
F0.6023732423782349
tp491
tp492
a((F-0.3890398144721985
F-0.18571196496486664
F-0.7020701169967651
tp493
(F3.021940210601315e-05
F-0.00011916541552636772
F0.3150949478149414
F0.9490601420402527
tp494
tp495
a((F0.36096835136413574
F0.5144060850143433
F-0.7015441656112671
tp496
(F1.845062979555223e-05
F2.1176880181883462e-05
F0.8953987956047058
F-0.445264995098114
tp497
tp498
a((F-0.2038307785987854
F0.6814800500869751
F-0.7018768787384033
tp499
(F-2.120828503393568e-05
F-7.573869515908882e-05
F-0.3487783372402191
F0.9372052550315857
tp500
tp501
a((F0.14774078130722046
F0.46820732951164246
F-0.7019035816192627
tp502
(F-1.810699723137077e-05
F-8.040546526899561e-05
F-0.730838418006897
F0.6825504899024963
tp503
tp504
a((F-0.39157000184059143
F0.26088523864746094
F-0.7020090222358704
tp505
(F3.593781730160117e-05
F-9.256877820007503e-05
F-0.4192492365837097
F0.9078711867332458
tp506
tp507
a((F-0.6578214168548584
F0.550419270992279
F-0.702225387096405
tp508
(F-0.00010403298801975325
F-8.400535443797708e-05
F0.47238805890083313
F0.8813906311988831
tp509
tp510
a((F-0.2940909266471863
F-0.3374127447605133
F-0.7020734548568726
tp511
(F5.150498327566311e-05
F-7.993262988748029e-05
F0.4497537910938263
F0.8931525349617004
tp512
tp513
a((F-0.344077467918396
F0.19646906852722168
F-0.7018558382987976
tp514
(F3.3652879210421816e-05
F-6.210357241798192e-05
F-0.3455227315425873
F0.9384104013442993
tp515
tp516
a((F-0.3901953101158142
F-0.5455279350280762
F-0.7018234133720398
tp517
(F2.2669594557100936e-07
F-7.212114724097773e-05
F0.7682782411575317
F0.6401159167289734
tp518
tp519
a((F0.2537335157394409
F0.6562753319740295
F-0.7020588517189026
tp520
(F-8.390803850488737e-05
F3.7991543649695814e-05
F-0.1622503101825714
F0.9867496490478516
tp521
tp522
a((F-0.5395958423614502
F-0.5567008256912231
F-0.7020023465156555
tp523
(F-4.14947971876245e-05
F-9.271087037632242e-05
F0.8379748463630676
F0.5457090139389038
tp524
tp525
a((F-0.4996219277381897
F0.2255028784275055
F-0.7017036080360413
tp526
(F9.228594535670709e-06
F-5.534818774322048e-05
F0.033974580466747284
F0.9994226694107056
tp527
tp528
a((F0.02595895528793335
F0.6647444367408752
F-0.7017884254455566
tp529
(F-3.3863943826872855e-05
F-5.947692261543125e-05
F-0.4111313223838806
F0.9115760922431946
tp530
tp531
a((F-0.3417500853538513
F-0.5910701155662537
F-0.7015531063079834
tp532
(F1.4900169844622724e-05
F-2.4815803044475615e-05
F0.6016249060630798
F0.7987787127494812
tp533
tp534
a((F0.005921781063079834
F-0.7509337067604065
F-0.7020549774169922
tp535
(F-8.682194675202481e-06
F-7.830446702428162e-05
F0.998549222946167
F0.05384582653641701
tp536
tp537
a((F0.3285757303237915
F0.6797024011611938
F-0.7016714811325073
tp538
(F-3.081935574300587e-05
F-1.8556938812253065e-05
F-0.6246787905693054
F0.7808818817138672
tp539
tp540
a((F-0.7822421789169312
F-0.24357104301452637
F-0.7019164562225342
tp541
(F-7.448386895703152e-05
F-3.289855158072896e-05
F0.9025656580924988
F0.430552214384079
tp542
tp543
a((F-0.3074284791946411
F-0.768821656703949
F-0.7019031047821045
tp544
(F-5.4067881137598306e-05
F-5.9739941207226366e-05
F0.9950399398803711
F0.0994754284620285
tp545
tp546
a((F-0.7054960131645203
F0.21585339307785034
F-0.7022174596786499
tp547
(F-0.00011846412235172465
F-8.216744026867673e-05
F0.6805931329727173
F0.7326614856719971
tp548
tp549
a((F-0.47780346870422363
F0.2770106792449951
F-0.7016904354095459
tp550
(F-4.218773392494768e-05
F-6.539648165926337e-05
F0.12088601291179657
F0.9926664233207703
tp551
tp552
a((F-0.49432212114334106
F-0.423033207654953
F-0.7021617293357849
tp553
(F-0.00010388689406681806
F-8.878162043401971e-05
F0.9474109411239624
F0.32001954317092896
tp554
tp555
a((F-0.4077035188674927
F0.5692087411880493
F-0.7021631598472595
tp556
(F-4.153997724642977e-05
F-0.0001447212853236124
F-0.04516488313674927
F0.9989795088768005
tp557
tp558
a((F-0.4921953082084656
F-0.6315323114395142
F-0.7015957832336426
tp559
(F-1.552234039081668e-06
F-3.768073656829074e-05
F0.7756453156471252
F0.6311690807342529
tp560
tp561
a((F-0.5914838314056396
F0.6034975051879883
F-0.702130138874054
tp562
(F-8.361996151506901e-05
F-8.876730862539262e-05
F0.33040615916252136
F0.9438388347625732
tp563
tp564
a((F0.14167362451553345
F0.8292117714881897
F-0.7016382813453674
tp565
(F-4.0935512515716255e-05
F9.554262760502752e-06
F-0.058946117758750916
F0.9982610940933228
tp566
tp567
a((F-0.7590720057487488
F-0.08452367782592773
F-0.7016018629074097
tp568
(F-5.7429191656410694e-05
F-1.2429244634404313e-05
F0.9121972918510437
F0.409751296043396
tp569
tp570
a((F-0.3181014358997345
F-0.35159069299697876
F-0.7020779252052307
tp571
(F5.1141225412720814e-05
F-8.107908070087433e-05
F0.3994295299053192
F0.916763961315155
tp572
tp573
a((F-0.11636632680892944
F0.7263373136520386
F-0.701854944229126
tp574
(F-3.176942118443549e-05
F-6.257998029468581e-05
F-0.31936928629875183
F0.9476302266120911
tp575
tp576
a((F-0.13705050945281982
F0.4628468155860901
F-0.7017319798469543
tp577
(F2.771964318526443e-05
F-7.025823288131505e-05
F-0.8262888193130493
F0.5632468461990356
tp578
tp579
a((F0.0235443115234375
F0.6160967946052551
F-0.7016422152519226
tp580
(F-8.82053700479446e-06
F-4.996202187612653e-05
F-0.6551547050476074
F0.7554946541786194
tp581
tp582
a((F-0.4870278239250183
F-0.17000450193881989
F-0.702141523361206
tp583
(F3.0215074730222113e-05
F-0.00014189248031470925
F0.16685648262500763
F0.985981285572052
tp584
tp585
a((F0.33091893792152405
F-0.6722203493118286
F-0.7021300196647644
tp586
(F5.117438195156865e-05
F-9.162165224552155e-05
F0.9671599268913269
F-0.2541685104370117
tp587
tp588
a((F-0.5315002799034119
F0.08140663802623749
F-0.7017776966094971
tp589
(F1.1375027497706469e-05
F-7.875154551584274e-05
F-0.14997261762619019
F0.988690197467804
tp590
tp591
a((F-0.4659014344215393
F0.36638885736465454
F-0.7019761800765991
tp592
(F9.14661904971581e-06
F-0.00010798849689308554
F-0.1433917135000229
F0.9896659851074219
tp593
tp594
a((F-0.2222331166267395
F0.4842325747013092
F-0.702109694480896
tp595
(F3.0547995265806094e-05
F-0.0001403797505190596
F-0.5658068656921387
F0.8245377540588379
tp596
tp597
a((F-0.4207116365432739
F-0.5107125043869019
F-0.7018301486968994
tp598
(F1.320893716183491e-05
F-6.577510066563264e-05
F0.6359652280807495
F0.7717176675796509
tp599
tp600
a((F-0.2208232283592224
F-0.2202281355857849
F-0.7020518183708191
tp601
(F7.314248068723828e-05
F-7.27935039321892e-05
F0.10595181584358215
F0.9943712949752808
tp602
tp603
a((F-0.33830493688583374
F-0.7095181345939636
F-0.7016028761863708
tp604
(F1.5954686887198477e-06
F-3.8659196434309706e-05
F0.8570485711097717
F0.5152361392974854
tp605
tp606
a((F-0.21695798635482788
F0.6346821784973145
F-0.7021176815032959
tp607
(F-8.52639350341633e-05
F2.22029320866568e-05
F0.42232745885849
F0.9064432978630066
tp608
tp609
a((F-0.7703856229782104
F-0.062423914670944214
F-0.7020192742347717
tp610
(F-5.862170655746013e-05
F-7.683883450226858e-05
F0.5476975440979004
F0.8366764783859253
tp611
tp612
a((F0.1647481918334961
F0.5651552081108093
F-0.7017101049423218
tp613
(F-1.3714316992263775e-05
F-4.5783715904690325e-05
F-0.7971280217170715
F0.6038105487823486
tp614
tp615
a((F0.5932308435440063
F0.4552033543586731
F-0.7017683386802673
tp616
(F-6.259451038204134e-05
F-1.8427380155117135e-06
F-0.7599007487297058
F0.6500391364097595
tp617
tp618
a((F0.25580894947052
F0.5710166692733765
F-0.7020918726921082
tp619
(F-7.347546488745138e-05
F-4.2181447497569025e-05
F-0.5176420211791992
F0.8555973172187805
tp620
tp621
a((F-0.1865558624267578
F-0.7371794581413269
F-0.7020740509033203
tp622
(F-5.349845014279708e-05
F-7.967484998516738e-05
F0.9961714744567871
F0.08741983026266098
tp623
tp624
a((F-0.432941198348999
F0.2139146476984024
F-0.7015244960784912
tp625
(F2.2140544388093986e-05
F-3.9860213291831315e-05
F-0.1604538857936859
F0.9870433211326599
tp626
tp627
a((F-0.2986574172973633
F-0.6898554563522339
F-0.7016204595565796
tp628
(F1.207000150316162e-05
F-2.814990330080036e-05
F0.7643611431121826
F0.644788384437561
tp629
tp630
a((F0.009981155395507812
F0.7273707985877991
F-0.7021065354347229
tp631
(F-8.326109673362225e-05
F7.131550319172675e-06
F0.042999714612960815
F0.9990751147270203
tp632
tp633
a((F-0.19771748781204224
F-0.3999198079109192
F-0.7016841769218445
tp634
(F4.6269451559055597e-05
F-2.2733160221832804e-05
F0.2700343430042267
F0.9628507494926453
tp635
tp636
a((F-0.5396642088890076
F-0.5787611603736877
F-0.7016957998275757
tp637
(F-1.1361993529135361e-05
F-5.5437769333366305e-05
F0.7794997692108154
F0.6264027953147888
tp638
tp639
a((F-0.43827372789382935
F0.722251296043396
F-0.7017740607261658
tp640
(F-5.611537926597521e-05
F-3.7097008771524997e-06
F0.4971657395362854
F0.8676555752754211
tp641
tp642
a((F-0.44823524355888367
F0.22179991006851196
F-0.7017157077789307
tp643
(F1.8378714230493642e-05
F-5.230403985478915e-05
F-0.3342200517654419
F0.9424951672554016
tp644
tp645
a((F-0.38527214527130127
F-0.6473180055618286
F-0.7020944952964783
tp646
(F-7.86843738751486e-05
F-8.744149090489373e-05
F0.9720890522003174
F0.23461222648620605
tp647
tp648
a((F-0.5111422538757324
F0.5432688593864441
F-0.7021269798278809
tp649
(F-0.00010876651504077017
F-2.8328118787612766e-05
F0.595728874206543
F0.8031856417655945
tp650
tp651
a((F-0.326236367225647
F-0.49792641401290894
F-0.7017827033996582
tp652
(F2.3843813323765062e-05
F-5.7826713600661606e-05
F0.6452727913856506
F0.7639521956443787
tp653
tp654
a((F0.09820187091827393
F-0.7376353740692139
F-0.701587975025177
tp655
(F2.859025335055776e-05
F-2.3193011656985618e-05
F0.9249796271324158
F0.3800167143344879
tp656
tp657
a((F-0.040341854095458984
F0.6625366806983948
F-0.7016139626502991
tp658
(F-9.424717973161023e-06
F-4.2394498450448737e-05
F-0.588160514831543
F0.8087442517280579
tp659
tp660
a((F0.2248636782169342
F0.6737247109413147
F-0.7017161846160889
tp661
(F-3.0238767067203298e-05
F-3.166581882396713e-05
F-0.61033034324646
F0.7921470403671265
tp662
tp663
a((F-0.4593237638473511
F0.4609682559967041
F-0.7021631002426147
tp664
(F-5.1101083954563364e-05
F-0.00014047716103959829
F0.10100241005420685
F0.9948862195014954
tp665
tp666
a((F-0.4887669086456299
F0.27375853061676025
F-0.7016744017601013
tp667
(F1.9921355487895198e-05
F-5.13271770614665e-05
F-0.26476380228996277
F0.964313268661499
tp668
tp669
a((F0.3478042483329773
F0.6955365538597107
F-0.7016779184341431
tp670
(F-4.106252163182944e-05
F-1.1282011655566748e-05
F-0.5155487060546875
F0.8568602204322815
tp671
tp672
a((F-0.7245991826057434
F0.05397513508796692
F-0.7020108699798584
tp673
(F-3.641131115728058e-05
F-8.144665480358526e-05
F0.40863409638404846
F0.9126983284950256
tp674
tp675
a((F-0.7553107738494873
F0.21496260166168213
F-0.7022162079811096
tp676
(F-0.00011808492126874626
F-8.522488496964797e-05
F0.7219469547271729
F0.691948413848877
tp677
tp678
a((F-0.5365137457847595
F0.06175262853503227
F-0.7017475366592407
tp679
(F8.963503205450252e-06
F-7.201907283160836e-05
F-0.2152160406112671
F0.9765663743019104
tp680
tp681
a((F0.0007159113883972168
F-0.7776849269866943
F-0.7018673419952393
tp682
(F7.621956683578901e-06
F-5.913240238442086e-05
F0.9886736273765564
F0.15008124709129333
tp683
tp684
a((F-0.6726658940315247
F-0.08995594084262848
F-0.7011555433273315
tp685
(F-3.463235771050677e-05
F1.804050953069236e-05
F0.9002843499183655
F0.43530240654945374
tp686
tp687
a((F0.0010567903518676758
F0.7783428430557251
F-0.701736569404602
tp688
(F-4.901083229924552e-05
F-1.9816756321233697e-05
F-0.11538608372211456
F0.9933207631111145
tp689
tp690
a((F-0.412486732006073
F0.5655162334442139
F-0.7021328806877136
tp691
(F-0.0001050950086209923
F-2.5689703761599958e-05
F0.5139086246490479
F0.8578449487686157
tp692
tp693
a((F-0.2232283353805542
F0.6411927938461304
F-0.7020760178565979
tp694
(F-7.953888416523114e-05
F2.733721885306295e-05
F0.4478076696395874
F0.8941299915313721
tp695
tp696
a((F-0.6252806782722473
F-0.2459448277950287
F-0.7021974325180054
tp697
(F-7.866196392569691e-05
F-0.0001227805478265509
F0.749351978302002
F0.6621718406677246
tp698
tp699
a((F-0.4635671079158783
F0.23015886545181274
F-0.7015873193740845
tp700
(F2.860401218640618e-05
F-3.083326737396419e-05
F-0.4597717821598053
F0.8880370855331421
tp701
tp702
a((F-0.009377717971801758
F-0.6863712072372437
F-0.7017872929573059
tp703
(F4.134142727707513e-05
F-3.36936027451884e-05
F0.8662995100021362
F0.49952495098114014
tp704
tp705
a((F-0.34364718198776245
F0.5711693167686462
F-0.7021276950836182
tp706
(F-8.657643775222823e-05
F-9.14223855943419e-05
F0.19893226027488708
F0.9800132513046265
tp707
tp708
a((F-0.4121335744857788
F-0.07560980319976807
F-0.7020890116691589
tp709
(F2.8871871109004132e-05
F-0.0001339911250397563
F0.17716273665428162
F0.9841815829277039
tp710
tp711
a((F-0.42076224088668823
F0.4213576316833496
F-0.7021412253379822
tp712
(F-2.369625508436002e-05
F-0.00014146907778922468
F-0.0401465967297554
F0.9991937279701233
tp713
tp714
a((F0.3562220633029938
F0.6463005542755127
F-0.7017056941986084
tp715
(F-3.400306377443485e-05
F-2.028633934969548e-05
F-0.6653627157211304
F0.7465202808380127
tp716
tp717
a((F-0.2293900102376938
F-0.7586089372634888
F-0.7018969058990479
tp718
(F-5.392109233071096e-05
F-6.169859261717647e-05
F0.9984409809112549
F0.05581703037023544
tp719
tp720
a((F-0.304454505443573
F-0.6122609376907349
F-0.7017449140548706
tp721
(F2.1512119928956963e-05
F-3.947512595914304e-05
F0.6818506717681885
F0.7314915060997009
tp722
tp723
a((F-0.01270449161529541
F-0.8173454999923706
F-0.7016183733940125
tp724
(F6.4819651015568525e-06
F-3.710209784912877e-05
F0.9834571480751038
F0.18114101886749268
tp725
tp726
a((F-0.38629525899887085
F-0.7443971037864685
F-0.7017794251441956
tp727
(F-9.635215974412858e-06
F-4.891782737104222e-05
F0.9054283499717712
F0.4244990348815918
tp728
tp729
a((F-0.587373673915863
F-0.33324503898620605
F-0.7021650075912476
tp730
(F-0.0001091591184376739
F-6.298462540144101e-05
F0.968431293964386
F0.24928046762943268
tp731
tp732
a((F-0.09426236152648926
F0.8029286861419678
F-0.7019066214561462
tp733
(F-5.045403304393403e-05
F-3.861763252643868e-05
F-0.13238027691841125
F0.9911990761756897
tp734
tp735
a((F0.44055843353271484
F0.6151050925254822
F-0.7016034722328186
tp736
(F-2.8596416086656973e-05
F-1.2311443242651876e-05
F-0.712113618850708
F0.7020640969276428
tp737
tp738
a((F-0.31291845440864563
F0.20444634556770325
F-0.7018800377845764
tp739
(F8.841808266879525e-06
F-8.582272130297497e-05
F-0.43380746245384216
F0.9010055661201477
tp740
tp741
a((F-0.01647937297821045
F-0.40452003479003906
F-0.7019975781440735
tp742
(F9.730845340527594e-05
F-5.901757504034322e-06
F0.6723465919494629
F0.7402365207672119
tp743
tp744
a((F-0.22193896770477295
F-0.5595031380653381
F-0.7019827961921692
tp745
(F1.9124501704936847e-05
F-7.662926509510726e-05
F0.8568423390388489
F0.5155786275863647
tp746
tp747
a((F-0.7569797039031982
F0.032979488372802734
F-0.7017730474472046
tp748
(F-3.379125701030716e-05
F-5.195093035581522e-05
F0.4035010039806366
F0.9149792194366455
tp749
tp750
a((F-0.3669867217540741
F-0.19681179523468018
F-0.702081561088562
tp751
(F4.65701159555465e-05
F-0.00011471238394733518
F0.19706742465496063
F0.9803898334503174
tp752
tp753
a((F0.06897091865539551
F-0.8856998682022095
F-0.7015345096588135
tp754
(F1.484503826532091e-07
F-2.616399069665931e-05
F0.9999932050704956
F0.003686177544295788
tp755
tp756
a((F-0.5908036828041077
F0.3196183443069458
F-0.7016890048980713
tp757
(F7.444357834174298e-06
F-5.8149096730630845e-05
F-0.003933996427804232
F0.9999922513961792
tp758
tp759
a((F0.3712095022201538
F0.7079771161079407
F-0.7015509009361267
tp760
(F-2.662294173205737e-05
F-9.162643436866347e-06
F-0.5670905113220215
F0.8236555457115173
tp761
tp762
a((F-0.3953048586845398
F-0.47737768292427063
F-0.7021099328994751
tp763
(F1.5346728105214424e-05
F-9.719954687170684e-05
F0.6609556674957275
F0.7504249215126038
tp764
tp765
a((F-0.5602125525474548
F0.4883631467819214
F-0.702164351940155
tp766
(F-0.00011821971565950662
F-5.150730794412084e-05
F0.5959831476211548
F0.8029968738555908
tp767
tp768
a((F0.4246329367160797
F0.7017446160316467
F-0.7017935514450073
tp769
(F-5.1876904763048515e-05
F1.7744885099091334e-06
F-0.46482113003730774
F0.8854045867919922
tp770
tp771
a((F-0.08623546361923218
F-0.31353479623794556
F-0.7019737958908081
tp772
(F8.281430200440809e-05
F-6.389881036739098e-06
F0.3439471423625946
F0.938988983631134
tp773
tp774
a((F-0.6233164668083191
F0.6306622624397278
F-0.7019972801208496
tp775
(F-7.652947533642873e-05
F-3.2610878406558186e-05
F0.5301671028137207
F0.847893238067627
tp776
tp777
a((F-0.7597630620002747
F0.05522894859313965
F-0.7017619013786316
tp778
(F-7.377258589258417e-05
F-3.4728942409856245e-05
F0.7909758687019348
F0.6118471622467041
tp779
tp780
a((F-0.16399359703063965
F-0.590874195098877
F-0.7016786932945251
tp781
(F2.819733890646603e-05
F-1.6320127542712726e-05
F0.5368656516075134
F0.8436678647994995
tp782
tp783
a((F-0.22798889875411987
F-0.7910071611404419
F-0.7016075849533081
tp784
(F-5.790742306999164e-06
F-3.9452617784263566e-05
F0.9565723538398743
F0.291495144367218
tp785
tp786
a((F-0.46317607164382935
F-0.28658008575439453
F-0.7019556760787964
tp787
(F3.178335464326665e-05
F-9.607405081624165e-05
F0.24953660368919373
F0.9683653116226196
tp788
tp789
a((F-0.547391414642334
F-0.2936757206916809
F-0.7019662261009216
tp790
(F1.1982134310528636e-05
F-0.0001038179689203389
F0.36524274945259094
F0.9309123754501343
tp791
tp792
a((F0.3715152442455292
F0.709715723991394
F-0.7018657326698303
tp793
(F-6.374393706209958e-05
F1.1913915841432754e-05
F-0.35462936758995056
F0.9350069165229797
tp794
tp795
a((F-0.7507895231246948
F0.08129644393920898
F-0.7017306089401245
tp796
(F-2.685317122086417e-05
F-4.6733337512705475e-05
F0.38391363620758057
F0.9233690500259399
tp797
tp798
a((F-0.008904874324798584
F-0.47869381308555603
F-0.701729953289032
tp799
(F6.286439747782424e-05
F-3.198714694008231e-06
F0.5958681702613831
F0.803082287311554
tp800
tp801
a((F0.3839903175830841
F0.5212326645851135
F-0.7021074891090393
tp802
(F-9.830816998146474e-05
F1.2797107046935707e-05
F-0.4811088740825653
F0.8766607642173767
tp803
tp804
a((F-0.06210549175739288
F0.8947106599807739
F-0.7017127275466919
tp805
(F-3.455641126492992e-05
F-4.511966835707426e-06
F0.02678617835044861
F0.9996412992477417
tp806
tp807
a((F-0.06890559196472168
F-0.4687104821205139
F-0.7016963362693787
tp808
(F5.0862559874076396e-05
F-4.231585535308113e-06
F0.3962673544883728
F0.9181352257728577
tp809
tp810
a((F-0.40325915813446045
F0.1974811553955078
F-0.701054036617279
tp811
(F2.7570958991418593e-05
F-8.35492664919002e-06
F-0.10802248120307922
F0.9941483736038208
tp812
tp813
a((F-0.7992938756942749
F-0.12492287158966064
F-0.7018015384674072
tp814
(F-5.3136023780098185e-05
F-2.0713856429210864e-05
F0.9232541918754578
F0.38418978452682495
tp815
tp816
a((F-0.3477102816104889
F-0.5952919125556946
F-0.7016167044639587
tp817
(F1.5831354176043533e-05
F-3.265410123276524e-05
F0.6460692882537842
F0.7632787823677063
tp818
tp819
a((F-0.016833603382110596
F-0.6846234798431396
F-0.7015575766563416
tp820
(F2.692393354664091e-05
F-1.717427949188277e-05
F0.8046501874923706
F0.5937491655349731
tp821
tp822
a((F-0.4104294776916504
F-0.5100378394126892
F-0.7021270394325256
tp823
(F-8.72658783919178e-05
F-9.343652345705777e-05
F0.9572350978851318
F0.28931093215942383
tp824
tp825
a((F-0.30164289474487305
F0.6295269727706909
F-0.7021413445472717
tp826
(F-4.49475810455624e-05
F-0.0001263623416889459
F-0.12870946526527405
F0.9916823506355286
tp827
tp828
a((F-0.36920398473739624
F-0.33838605880737305
F-0.7019249200820923
tp829
(F4.9596084863878787e-05
F-6.556564767379314e-05
F0.12328320741653442
F0.9923716187477112
tp830
tp831
a((F-0.623869776725769
F0.06314167380332947
F-0.7020368576049805
tp832
(F-1.4928773452993482e-05
F-0.00010339806613046676
F0.11629199981689453
F0.9932150840759277
tp833
tp834
a((F-0.3040027618408203
F0.6781803965568542
F-0.7019636034965515
tp835
(F-7.580527744721621e-05
F5.18080560141243e-06
F0.44106924533843994
F0.8974730968475342
tp836
tp837
a((F0.06523066759109497
F0.4986991882324219
F-0.702043890953064
tp838
(F-1.8475706383469515e-05
F-0.00010488802217878401
F-0.6091017127037048
F0.7930920720100403
tp839
tp840
a((F-0.61296546459198
F0.07208944857120514
F-0.7021269202232361
tp841
(F-1.163164597528521e-05
F-0.0001176453588414006
F0.15483912825584412
F0.987939715385437
tp842
tp843
a((F0.16966798901557922
F0.5949068069458008
F-0.7017343640327454
tp844
(F-2.9514474590541795e-05
F-4.994367191102356e-05
F-0.6098517775535583
F0.7925155162811279
tp845
tp846
a((F-0.5069441795349121
F-0.19797593355178833
F-0.7021523118019104
tp847
(F7.541040304204216e-06
F-0.00014272100816015154
F0.3524920344352722
F0.9358148574829102
tp848
tp849
a((F-0.23733177781105042
F-0.8293885588645935
F-0.7018811702728271
tp850
(F-3.285348429926671e-05
F-5.314846202963963e-05
F0.9959414601325989
F0.09000318497419357
tp851
tp852
a((F0.040882229804992676
F-0.6853143572807312
F-0.7019732594490051
tp853
(F3.225106775062159e-05
F-6.787144957343116e-05
F0.9800269603729248
F0.19886477291584015
tp854
tp855
a((F-0.7189599871635437
F-0.1652088165283203
F-0.7014120817184448
tp856
(F-3.869815554935485e-05
F6.4314458541048225e-06
F0.942368745803833
F0.3345761299133301
tp857
tp858
a((F-0.48417922854423523
F0.29941660165786743
F-0.7017638087272644
tp859
(F-3.8087837310740724e-05
F-7.603656558785588e-05
F0.10973300039768219
F0.9939611554145813
tp860
tp861
a((F-0.07163017988204956
F0.623193621635437
F-0.7016496062278748
tp862
(F-5.018173851567553e-06
F-5.313508881954476e-05
F-0.6085354685783386
F0.7935267090797424
tp863
tp864
a((F0.22970691323280334
F0.4970282018184662
F-0.7015217542648315
tp865
(F7.237352747324621e-06
F2.4351633328478783e-05
F0.9720149636268616
F-0.23491887748241425
tp866
tp867
a((F-0.5439931750297546
F0.12307339161634445
F-0.7017552852630615
tp868
(F8.880073437467217e-06
F-4.6781184209976345e-05
F-0.3159623444080353
F0.9487717747688293
tp869
tp870
a((F0.04177671670913696
F-0.636408805847168
F-0.7020131945610046
tp871
(F5.5093307310016826e-05
F-6.258421490201727e-05
F0.9563571810722351
F0.29220014810562134
tp872
tp873
a((F-0.703733503818512
F0.10158586502075195
F-0.7017582058906555
tp874
(F-8.127577166305855e-05
F-3.582823046599515e-05
F0.7043561935424805
F0.7098467946052551
tp875
tp876
a((F-0.007331401109695435
F0.5777706503868103
F-0.7015461921691895
tp877
(F4.993652851226216e-07
F-3.311038017272949e-05
F-0.8154821395874023
F0.5787822604179382
tp878
tp879
a((F-0.17049458622932434
F-0.4939309358596802
F-0.701737105846405
tp880
(F4.531931335804984e-05
F-3.338440728839487e-05
F0.6488946080207825
F0.760878324508667
tp881
tp882
a((F-0.2843538522720337
F-0.7637134194374084
F-0.7019801735877991
tp883
(F-6.581811612704769e-05
F-6.33632080280222e-05
F0.9987297058105469
F0.0503898449242115
tp884
tp885
a((F-0.010392934083938599
F0.4965554475784302
F-0.7017895579338074
tp886
(F1.2420426173775923e-05
F-7.496633043047041e-05
F-0.7993701100349426
F0.6008390188217163
tp887
tp888
a((F0.4646257162094116
F0.6586530208587646
F-0.7021340727806091
tp889
(F-8.981960854725912e-05
F5.066117591923103e-05
F-0.3229258954524994
F0.9464243054389954
tp890
tp891
a((F-0.3800317943096161
F-0.4533047080039978
F-0.7016068696975708
tp892
(F2.312586184416432e-05
F-3.3967193303396925e-05
F0.36275944113731384
F0.9318827986717224
tp893
tp894
a((F0.29041004180908203
F0.4431527256965637
F-0.7016245722770691
tp895
(F1.540603807370644e-05
F3.3127013011835515e-05
F0.9827874898910522
F-0.1847395896911621
tp896
tp897
a((F-0.3312671184539795
F0.30726897716522217
F-0.7020450830459595
tp898
(F5.0932150770677254e-05
F-0.00011408265709178522
F-0.48840266466140747
F0.8726184964179993
tp899
tp900
a((F0.050058409571647644
F-0.7367637157440186
F-0.7016558647155762
tp901
(F2.8272375857341103e-05
F-2.1939804355497472e-05
F0.8861373662948608
F0.46342259645462036
tp902
tp903
a((F-0.38903093338012695
F-0.5781921744346619
F-0.7021320462226868
tp904
(F-9.075462003238499e-05
F-9.07880166778341e-05
F0.9718891382217407
F0.23543882369995117
tp905
tp906
a((F-0.1984894871711731
F0.35934680700302124
F-0.7020981907844543
tp907
(F6.399878475349396e-05
F-0.00014215358532965183
F-0.6680096387863159
F0.7441526651382446
tp908
tp909
a((F-0.08190301060676575
F-0.6548797488212585
F-0.7020747661590576
tp910
(F6.7951204982819036e-06
F-8.400344813708216e-05
F0.9732956886291504
F0.2295549213886261
tp911
tp912
a((F-0.14244624972343445
F0.4047137200832367
F-0.7020050287246704
tp913
(F5.413144754129462e-05
F-0.0001129450902226381
F-0.8085665702819824
F0.5884045958518982
tp914
tp915
a((F-0.3525974750518799
F0.5816518068313599
F-0.7021085619926453
tp916
(F-8.488674939144403e-05
F-9.027467604028061e-05
F0.1987653225660324
F0.9800471067428589
tp917
tp918
a((F-0.24623262882232666
F-0.3383835256099701
F-0.7020121812820435
tp919
(F5.585876351688057e-05
F-6.46691769361496e-05
F0.4971170127391815
F0.8676835298538208
tp920
tp921
a((F-0.38747143745422363
F0.6962088942527771
F-0.7018964290618896
tp922
(F-7.065147656248882e-05
F-4.680262009060243e-06
F0.4686761796474457
F0.883370041847229
tp923
tp924
a((F-0.506430983543396
F-0.24459895491600037
F-0.702113151550293
tp925
(F-9.841065548243932e-06
F-0.0001326730998698622
F0.5129682421684265
F0.8584076762199402
tp926
tp927
a((F-0.5304429531097412
F-0.6796001195907593
F-0.701790988445282
tp928
(F-3.65055566362571e-05
F-5.628692451864481e-05
F0.9293646216392517
F0.36916303634643555
tp929
tp930
a((F0.3855268359184265
F-0.8068937659263611
F-0.7016999125480652
tp931
(F9.0616631496232e-06
F-4.05676182708703e-05
F0.9520498514175415
F-0.3059428632259369
tp932
tp933
a((F-0.42309635877609253
F0.6304624080657959
F-0.7021343111991882
tp934
(F-9.278888319386169e-05
F-7.647382153663784e-05
F0.28793850541114807
F0.9576488733291626
tp935
tp936
a((F-0.806359052658081
F-0.07715854048728943
F-0.7018349170684814
tp937
(F-4.801765680895187e-05
F-3.177757025696337e-05
F0.8265179395675659
F0.5629103183746338
tp938
tp939
a((F-0.6929458379745483
F-0.005421251058578491
F-0.7021732330322266
tp940
(F-4.427314706845209e-05
F-0.00011622019519563764
F0.4472002387046814
F0.8944337964057922
tp941
tp942
a((F-0.20888486504554749
F0.549346923828125
F-0.7021074295043945
tp943
(F-3.1004212814877974e-06
F-0.0001399292377755046
F-0.400232195854187
F0.9164137840270996
tp944
tp945
a((F-0.675211489200592
F0.07056266069412231
F-0.7019357681274414
tp946
(F-2.4893181034713052e-05
F-7.999324589036405e-05
F0.20857621729373932
F0.97800612449646
tp947
tp948
a((F-0.5244866609573364
F-0.5590815544128418
F-0.701886773109436
tp949
(F-3.4075408620992675e-05
F-8.220524614444003e-05
F0.8351114988327026
F0.5500807166099548
tp950
tp951
a((F-0.4844819903373718
F0.35028427839279175
F-0.7020071148872375
tp952
(F2.6385316232335754e-05
F-9.733779734233394e-05
F-0.20226223766803741
F0.979331374168396
tp953
tp954
a((F0.19423696398735046
F0.438315212726593
F-0.7016802430152893
tp955
(F1.0801286407513544e-05
F5.3400624892674387e-05
F0.879836916923523
F-0.47527578473091125
tp956
tp957
a((F-0.4918179512023926
F0.17513635754585266
F-0.7015368938446045
tp958
(F2.1272939193295315e-05
F-2.228030643891543e-05
F-0.44976359605789185
F0.8931475877761841
tp959
tp960
a((F-0.0025794506072998047
F0.5346351265907288
F-0.7019898295402527
tp961
(F-1.4250559615902603e-05
F-0.0001061501243384555
F-0.5452842116355896
F0.8382512927055359
tp962
tp963
a((F-0.4151090085506439
F-0.7812259197235107
F-0.7019522190093994
tp964
(F-5.965025047771633e-05
F-4.775532579515129e-05
F0.9990818500518799
F0.04284249618649483
tp965
tp966
a((F-0.36632680892944336
F0.20569303631782532
F-0.7015630006790161
tp967
(F3.33027055603452e-05
F-3.939896487281658e-05
F-0.26267051696777344
F0.9648855924606323
tp968
tp969
a((F-0.19857251644134521
F0.7105423212051392
F-0.701755940914154
tp970
(F-2.4278147975564934e-05
F-6.057635255274363e-05
F-0.29064860939979553
F0.956829845905304
tp971
tp972
a((F-0.3058210015296936
F0.17898693680763245
F-0.7018210291862488
tp973
(F3.392413054825738e-05
F-5.950222839601338e-05
F-0.4153475761413574
F0.9096628427505493
tp974
tp975
a((F-0.4649462103843689
F-0.16787603497505188
F-0.702139139175415
tp976
(F3.294601629022509e-05
F-0.00013991558807902038
F0.16994492709636688
F0.9854536056518555
tp977
tp978
a((F-0.35246288776397705
F0.7253352403640747
F-0.7017782926559448
tp979
(F-5.50503573322203e-05
F8.880673703970388e-06
F0.49807828664779663
F0.8671320676803589
tp980
tp981
a((F-0.3902779817581177
F-0.5611054301261902
F-0.7017033696174622
tp982
(F1.1583078958210535e-05
F-5.132796650286764e-05
F0.6886496543884277
F0.7250943779945374
tp983
tp984
a((F-0.5703134536743164
F0.2713141143321991
F-0.7019314765930176
tp985
(F-8.467919769827859e-07
F-7.583388651255518e-05
F0.005247896537184715
F0.9999862909317017
tp986
tp987
a((F-0.7266170978546143
F0.06575995683670044
F-0.7020233869552612
tp988
(F-4.905770401819609e-05
F-5.8446425100555643e-05
F0.6114837527275085
F0.7912570834159851
tp989
tp990
a((F-0.4475001096725464
F-0.7452666759490967
F-0.7017307877540588
tp991
(F-2.8767448384314775e-05
F-4.7540583182126284e-05
F0.9555982947349548
F0.29467278718948364
tp992
tp993
a((F-0.5836331844329834
F0.06188224256038666
F-0.7019992470741272
tp994
(F-3.4188085464847973e-06
F-0.00011302090570097789
F0.16572964191436768
F0.9861712455749512
tp995
tp996
a((F-0.3136329650878906
F-0.32530221343040466
F-0.7019342184066772
tp997
(F5.7421460951445624e-05
F-6.220323120942339e-05
F0.10989963263273239
F0.9939426779747009
tp998
tp999
a((F-0.7032464742660522
F0.21037393808364868
F-0.7022001147270203
tp1000
(F-0.0001290114742005244
F-6.925588968442753e-05
F0.7513720989227295
F0.6598787903785706
tp1001
tp1002
a((F-0.18779508769512177
F-0.8321634531021118
F-0.7015865445137024
tp1003
(F-6.611504090869857e-07
F-3.1278381356969476e-05
F0.959632158279419
F0.28125807642936707
tp1004
tp1005
a((F0.1424182951450348
F-0.6664456129074097
F-0.7016153335571289
tp1006
(F3.758126695174724e-05
F-1.3832904187438544e-05
F0.8577765226364136
F0.5140227675437927
tp1007
tp1008
a((F-0.4127269983291626
F-0.5577475428581238
F-0.701808512210846
tp1009
(F1.5277630154741928e-05
F-5.275584408082068e-05
F0.6386918425559998
F0.7694625854492188
tp1010
tp1011
a((F0.031143367290496826
F-0.6923163533210754
F-0.7020847201347351
tp1012
(F7.522070518461987e-05
F-8.355815225513652e-05
F0.9989846348762512
F-0.045051198452711105
tp1013
tp1014
a((F-0.23112188279628754
F0.500008225440979
F-0.7018604874610901
tp1015
(F2.2633652406511828e-05
F-9.27626751945354e-05
F-0.640347957611084
F0.7680848836898804
tp1016
tp1017
a((F0.24904733896255493
F0.8545358777046204
F-0.7016201019287109
tp1018
(F-2.7887876058230177e-05
F2.7196529117645696e-05
F0.1031283512711525
F0.9946680068969727
tp1019
tp1020
a((F-0.203443706035614
F0.48350098729133606
F-0.7020971775054932
tp1021
(F2.565936665632762e-05
F-0.00014317347086034715
F-0.5352251529693604
F0.8447095155715942
tp1022
tp1023
a((F0.4197925925254822
F-0.6957169771194458
F-0.7021368145942688
tp1024
(F3.479766382952221e-05
F-9.24187625059858e-05
F0.9204695224761963
F-0.3908143937587738
tp1025
tp1026
a((F-0.11156785488128662
F-0.7597861289978027
F-0.7017436027526855
tp1027
(F2.0068480807822198e-05
F-2.9761526093352586e-05
F0.8653368949890137
F0.5011906623840332
tp1028
tp1029
a((F-0.43710607290267944
F-0.10758084058761597
F-0.7021198868751526
tp1030
(F4.234479638398625e-05
F-0.00014158252452034503
F0.04585609212517738
F0.9989480972290039
tp1031
tp1032
a((F-0.11376583576202393
F-0.8317469358444214
F-0.7018020749092102
tp1033
(F-1.2548888435048866e-06
F-4.73223662993405e-05
F0.9783374071121216
F0.20701688528060913
tp1034
tp1035
a((F-0.39031851291656494
F0.22112159430980682
F-0.7018447518348694
tp1036
(F1.769888876879122e-05
F-6.552686681970954e-05
F-0.23023973405361176
F0.9731339812278748
tp1037
tp1038
a((F0.02187749743461609
F0.8082293272018433
F-0.7015483379364014
tp1039
(F-2.1933235984761268e-05
F-1.997548133658711e-05
F-0.3355616629123688
F0.9420182704925537
tp1040
tp1041
a((F-0.0798305869102478
F-0.5591493248939514
F-0.7018749117851257
tp1042
(F5.6144905101973563e-05
F-4.1850122215691954e-05
F0.8166680932044983
F0.5771077871322632
tp1043
tp1044
a((F-0.1166372075676918
F-0.733752429485321
F-0.7015552520751953
tp1045
(F1.741336382110603e-05
F-2.2380201698979363e-05
F0.8388721942901611
F0.5443282723426819
tp1046
tp1047
a((F-0.13159412145614624
F-0.6374671459197998
F-0.7015612721443176
tp1048
(F2.511464299459476e-05
F-1.8347767763771117e-05
F0.6935921311378479
F0.7203678488731384
tp1049
tp1050
a((F-0.06276410818099976
F0.8234117031097412
F-0.7016438841819763
tp1051
(F-3.6931793147232383e-05
F-2.0113155187573284e-05
F-0.10660474747419357
F0.9943013787269592
tp1052
tp1053
a((F-0.034036412835121155
F0.5581501722335815
F-0.7016351222991943
tp1054
(F3.239870238758158e-06
F-5.39275752089452e-05
F-0.742063045501709
F0.6703301072120667
tp1055
tp1056
a((F-0.5756492018699646
F-0.28385743498802185
F-0.702182412147522
tp1057
(F-1.902059193525929e-05
F-0.00014136836398392916
F0.5192863941192627
F0.8546003103256226
tp1058
tp1059
a((F-0.09124308824539185
F-0.5156647562980652
F-0.701736330986023
tp1060
(F5.3502499213209376e-05
F-2.253718594147358e-05
F0.6750340461730957
F0.7377864718437195
tp1061
tp1062
a((F-0.871116042137146
F-0.012750953435897827
F-0.7015575766563416
tp1063
(F-2.6392150175524876e-05
F-1.5755080312374048e-05
F0.6760373115539551
F0.7368674874305725
tp1064
tp1065
a((F-0.6526538133621216
F0.2068079113960266
F-0.7017359733581543
tp1066
(F1.3708209962715046e-06
F-4.005797745776363e-05
F0.015244988724589348
F0.999883770942688
tp1067
tp1068
a((F-0.4402669668197632
F0.47271430492401123
F-0.7021540999412537
tp1069
(F-8.041471301112324e-05
F-0.00011563950101844966
F0.23789428174495697
F0.9712910056114197
tp1070
tp1071
a((F-0.8108356595039368
F0.07498516142368317
F-0.7016088962554932
tp1072
(F-2.3493254047934897e-05
F-2.980814315378666e-05
F0.5485031008720398
F0.8361485600471497
tp1073
tp1074
a((F-0.49397796392440796
F-0.510307788848877
F-0.702191174030304
tp1075
(F-0.00013643375132232904
F-6.465921615017578e-05
F0.9898653030395508
F0.1420097053050995
tp1076
tp1077
a((F-0.42803269624710083
F0.7267941236495972
F-0.7017924785614014
tp1078
(F-5.4742191423429176e-05
F-4.258404442225583e-05
F0.22829580307006836
F0.9735918641090393
tp1079
tp1080
a((F-0.6974806189537048
F0.0838819146156311
F-0.7019035816192627
tp1081
(F-4.444578007678501e-05
F-5.2529474487528205e-05
F0.5804392695426941
F0.8143035769462585
tp1082
tp1083
a((F-0.7347618341445923
F0.251547634601593
F-0.7017024755477905
tp1084
(F-5.698052973457379e-06
F-5.040111864218488e-05
F0.28579607605934143
F0.9582904577255249
tp1085
tp1086
a((F-0.4062884449958801
F0.2934330701828003
F-0.7020390033721924
tp1087
(F2.0381899958010763e-05
F-0.00010475108138052747
F-0.3018476963043213
F0.9533562064170837
tp1088
tp1089
a((F-0.44555097818374634
F0.7340470552444458
F-0.7018027901649475
tp1090
(F-5.236612923908979e-05
F-4.20557007601019e-05
F0.2219890058040619
F0.9750491976737976
tp1091
tp1092
a((F0.28328466415405273
F-0.8531427383422852
F-0.7017453908920288
tp1093
(F4.006753442808986e-06
F-3.913673208444379e-05
F0.9737781882286072
F-0.2274993360042572
tp1094
tp1095
a((F-0.5315450429916382
F0.4010235369205475
F-0.7021691203117371
tp1096
(F-4.4313532271189615e-05
F-0.000134704852825962
F0.148166686296463
F0.9889622926712036
tp1097
tp1098
a((F-0.11085569858551025
F-0.6396525502204895
F-0.7016898989677429
tp1099
(F3.2445186661789194e-05
F-3.669493889901787e-05
F0.8319501876831055
F0.5548503994941711
tp1100
tp1101
a((F-0.1371564269065857
F0.7645236253738403
F-0.7016939520835876
tp1102
(F-3.182468208251521e-05
F-4.3027979700127617e-05
F-0.21639592945575714
F0.9763057231903076
tp1103
tp1104
a((F-0.19182974100112915
F0.6821702122688293
F-0.70208740234375
tp1105
(F-8.562812581658363e-05
F1.736815875119646e-06
F0.2974088788032532
F0.9547501802444458
tp1106
tp1107
a((F-0.4728625416755676
F-0.4487841725349426
F-0.7018446326255798
tp1108
(F1.215972861245973e-05
F-7.251277565956116e-05
F0.5532333254814148
F0.8330264687538147
tp1109
tp1110
a((F-0.5954403877258301
F-0.4286387264728546
F-0.7019762396812439
tp1111
(F-1.0159740668314043e-05
F-9.205326932715252e-05
F0.6158642172813416
F0.7878523468971252
tp1112
tp1113
a((F0.22319236397743225
F-0.8031705617904663
F-0.7015981078147888
tp1114
(F1.880870149761904e-05
F-3.148915493511595e-05
F0.9978082776069641
F0.06617139279842377
tp1115
tp1116
a((F-0.4727429151535034
F-0.6048019528388977
F-0.7022011280059814
tp1117
(F-0.0001317847054451704
F-7.117314817151055e-05
F0.9931797981262207
F0.11659285426139832
tp1118
tp1119
a((F-0.6128432750701904
F0.6083803176879883
F-0.7019581198692322
tp1120
(F-7.969448051881045e-05
F-2.6045994673040695e-05
F0.5828381776809692
F0.8125882148742676
tp1121
tp1122
a((F-0.4437161087989807
F-0.6750743389129639
F-0.7017011046409607
tp1123
(F-1.3411831787379924e-05
F-5.23142734891735e-05
F0.8725146651268005
F0.4885878264904022
tp1124
tp1125
a((F-0.39410674571990967
F0.37421485781669617
F-0.7021114826202393
tp1126
(F-1.842426718212664e-05
F-0.0001308513164985925
F-0.09397061914205551
F0.9955750107765198
tp1127
tp1128
a((F-0.503240168094635
F-0.5659586191177368
F-0.7022019028663635
tp1129
(F-0.0001014555455185473
F-9.988842793973163e-05
F0.9458457827568054
F0.32461637258529663
tp1130
tp1131
a((F-0.18981021642684937
F0.49770045280456543
F-0.7021016478538513
tp1132
(F-2.5340959837194532e-05
F-0.00013521776418201625
F-0.25953251123428345
F0.9657344222068787
tp1133
tp1134
a((F-0.5048233866691589
F0.056710243225097656
F-0.70194411277771
tp1135
(F2.3519096430391073e-05
F-0.00010410229151602834
F-0.17384198307991028
F0.9847734570503235
tp1136
tp1137
a((F-0.32237178087234497
F0.5266034007072449
F-0.7021392583847046
tp1138
(F-1.307039383391384e-05
F-0.00015316903591156006
F-0.22256599366664886
F0.9749175906181335
tp1139
tp1140
a((F-0.6061810255050659
F0.2854384779930115
F-0.7016647458076477
tp1141
(F6.797310561523773e-06
F-5.0161004764959216e-05
F0.007658765651285648
F0.9999706745147705
tp1142
tp1143
a((F-0.4719284176826477
F-0.14778655767440796
F-0.7021316289901733
tp1144
(F4.4093121687183157e-05
F-0.0001412920973962173
F0.030166778713464737
F0.9995448589324951
tp1145
tp1146
a((F-0.582144558429718
F-0.01395946741104126
F-0.70217365026474
tp1147
(F-1.2455588148441166e-05
F-0.00014582418953068554
F0.24400267004966736
F0.9697745442390442
tp1148
tp1149
a((F-0.2530633211135864
F0.6180334091186523
F-0.7021417021751404
tp1150
(F-4.2218562157358974e-05
F-0.0001281287259189412
F-0.17578938603401184
F0.984427809715271
tp1151
tp1152
a((F-0.49595963954925537
F0.027817487716674805
F-0.7021350264549255
tp1153
(F2.136790135409683e-05
F-0.00014185831241775304
F0.05491045117378235
F0.9984912872314453
tp1154
tp1155
a((F-0.43928831815719604
F-0.18246236443519592
F-0.7021238207817078
tp1156
(F1.9434422938502394e-05
F-0.00013289277558214962
F0.339255690574646
F0.9406942129135132
tp1157
tp1158
a((F0.3951217234134674
F0.778578519821167
F-0.7016751170158386
tp1159
(F-4.150122913415544e-05
F1.6795305782579817e-05
F-0.2499242126941681
F0.9682654142379761
tp1160
tp1161
a((F0.07354582846164703
F0.5400198101997375
F-0.701578676700592
tp1162
(F-8.072885862020485e-07
F-3.999560794909485e-05
F-0.8537805676460266
F0.5206331014633179
tp1163
tp1164
a((F-0.4093359410762787
F0.3539040684700012
F-0.702110230922699
tp1165
(F-2.499577749404125e-05
F-0.00012580135080497712
F-0.05975019186735153
F0.9982132911682129
tp1166
tp1167
a((F0.02497023344039917
F-0.41428592801094055
F-0.7020239233970642
tp1168
(F0.0001067446282831952
F-5.107843662699452e-06
F0.7468384504318237
F0.6650055646896362
tp1169
tp1170
a((F-0.4830853343009949
F-0.23228996992111206
F-0.7021200060844421
tp1171
(F3.5313263651914895e-05
F-0.00012555225112009794
F0.19032175838947296
F0.9817217588424683
tp1172
tp1173
a((F0.15305271744728088
F-0.5053455829620361
F-0.7020533084869385
tp1174
(F0.00010756995470728725
F-4.040361091028899e-05
F0.9571428894996643
F0.28961610794067383
tp1175
tp1176
a((F-0.16674762964248657
F0.5682119131088257
F-0.7018945217132568
tp1177
(F6.840906735305907e-06
F-8.708664972800761e-05
F-0.6067190766334534
F0.7949163913726807
tp1178
tp1179
a((F-0.13994622230529785
F0.5635814666748047
F-0.7019774913787842
tp1180
(F-3.361192966622184e-06
F-0.00011467590229585767
F-0.4803744852542877
F0.877063512802124
tp1181
tp1182
a((F-0.5214940309524536
F-0.4280818700790405
F-0.701777458190918
tp1183
(F4.954702490067575e-06
F-7.096449553500861e-05
F0.5537796020507812
F0.8326632976531982
tp1184
tp1185
a((F0.035027265548706055
F0.6622352600097656
F-0.7019346356391907
tp1186
(F-5.399566362029873e-05
F-5.87894392083399e-05
F-0.3013576865196228
F0.9535111784934998
tp1187
tp1188
a((F-0.3802536129951477
F0.32158562541007996
F-0.7020331025123596
tp1189
(F1.2831043250116636e-06
F-0.00011520987027324736
F-0.2241535186767578
F0.9745538830757141
tp1190
tp1191
a((F-0.1344822645187378
F0.6247252225875854
F-0.7020723223686218
tp1192
(F-4.470788553589955e-05
F-0.00010749493958428502
F-0.24777284264564514
F0.968818187713623
tp1193
tp1194
a((F-0.5340573787689209
F-0.43573707342147827
F-0.7018460631370544
tp1195
(F-5.299632448441116e-06
F-8.322385838255286e-05
F0.6244367957115173
F0.7810754179954529
tp1196
tp1197
a((F-0.2800726890563965
F0.5656687021255493
F-0.7021268010139465
tp1198
(F-1.7842537999968044e-05
F-0.0001435133017366752
F-0.26162442564964294
F0.9651697278022766
tp1199
tp1200
a((F-0.7803511619567871
F0.024879664182662964
F-0.7017073035240173
tp1201
(F-6.313624908216298e-05
F-3.103799463133328e-05
F0.8089794516563416
F0.5878368020057678
tp1202
tp1203
a((F-0.8463650345802307
F-0.11250191926956177
F-0.7017783522605896
tp1204
(F-4.423085192684084e-05
F-1.9828601580229588e-05
F0.8534499406814575
F0.5211750864982605
tp1205
tp1206
a((F-0.5252669453620911
F0.31776344776153564
F-0.7019657492637634
tp1207
(F-3.744211426237598e-05
F-9.857343684416264e-05
F0.12111083418130875
F0.9926390051841736
tp1208
tp1209
a((F-0.42117732763290405
F-0.5743429660797119
F-0.7019580602645874
tp1210
(F3.041248646695749e-06
F-7.693064981140196e-05
F0.7463768720626831
F0.6655233502388
tp1211
tp1212
a((F-0.5383609533309937
F-0.6508879661560059
F-0.7018277645111084
tp1213
(F-3.644933894975111e-05
F-6.323884736048058e-05
F0.9057641625404358
F0.42378199100494385
tp1214
tp1215
a((F-0.3917006254196167
F0.604362964630127
F-0.702126145362854
tp1216
(F-9.521065658191219e-05
F-7.187025039456785e-05
F0.3017820119857788
F0.9533769488334656
tp1217
tp1218
a((F-0.7605124711990356
F-0.025066465139389038
F-0.7017710208892822
tp1219
(F-3.8435275200754404e-05
F-5.8062920288648456e-05
F0.6326060891151428
F0.7744738459587097
tp1220
tp1221
a((F-0.42613208293914795
F0.6900960803031921
F-0.7021284699440002
tp1222
(F-9.04854605323635e-05
F-5.089337355457246e-05
F0.3299700915813446
F0.943991482257843
tp1223
tp1224
a((F-0.1974116563796997
F0.7852426171302795
F-0.7016872763633728
tp1225
(F-2.756592584773898e-05
F-3.723596819327213e-05
F-0.18796929717063904
F0.9821748733520508
tp1226
tp1227
a((F-0.26312869787216187
F0.5370500683784485
F-0.7021171450614929
tp1228
(F-2.3411686925101094e-05
F-0.00014324233052320778
F-0.22255778312683105
F0.9749194979667664
tp1229
tp1230
a((F-0.6824489235877991
F-0.016286924481391907
F-0.701819896697998
tp1231
(F-3.0113375032669865e-05
F-8.166322368197143e-05
F0.6065632104873657
F0.7950353026390076
tp1232
tp1233
a((F0.22991813719272614
F0.8394123315811157
F-0.7016626596450806
tp1234
(F-3.0144499760353938e-05
F3.501923129078932e-05
F0.15028579533100128
F0.9886425733566284
tp1235
tp1236
a((F-0.09930539131164551
F0.547897219657898
F-0.7016955018043518
tp1237
(F8.105830602289643e-06
F-6.450982618844137e-05
F-0.7061908841133118
F0.7080215215682983
tp1238
tp1239
a((F0.13926738500595093
F0.7647179961204529
F-0.7017977237701416
tp1240
(F-5.6386415963061154e-05
F-3.0922283258405514e-06
F-0.1691507250070572
F0.9855902194976807
tp1241
tp1242
a((F-0.5612435340881348
F0.3849705755710602
F-0.7021834850311279
tp1243
(F-0.00012810525367967784
F-4.157106013735756e-05
F0.6951226592063904
F0.7188910841941833
tp1244
tp1245
a((F-0.11966592073440552
F0.6092018485069275
F-0.7019016742706299
tp1246
(F-1.6647758457111195e-05
F-9.687784040579572e-05
F-0.42242059111595154
F0.9063999652862549
tp1247
tp1248
a((F0.06468811631202698
F-0.8899112343788147
F-0.7015577554702759
tp1249
(F-1.391203909406613e-06
F-2.9637663828907534e-05
F0.977085530757904
F-0.212847039103508
tp1250
tp1251
a((F-0.37032198905944824
F0.4096905589103699
F-0.7021130323410034
tp1252
(F-3.6391164030646905e-05
F-0.0001313341490458697
F-0.019961992278695107
F0.9998008012771606
tp1253
tp1254
a((F-0.2242114543914795
F0.4463273882865906
F-0.7020928859710693
tp1255
(F4.6704190026503056e-05
F-0.00013144745025783777
F-0.6698282957077026
F0.7425159811973572
tp1256
tp1257
a((F-0.748119592666626
F0.04515380412340164
F-0.7015334367752075
tp1258
(F-5.336646063369699e-05
F-2.1503519747057e-05
F0.7542025446891785
F0.6566419005393982
tp1259
tp1260
a((F-0.4980415105819702
F0.6188367009162903
F-0.7021681070327759
tp1261
(F-8.756139141041785e-05
F-9.793903882382438e-05
F0.26375284790992737
F0.9645902514457703
tp1262
tp1263
a((F-0.5056936740875244
F0.6836585998535156
F-0.7018359303474426
tp1264
(F-6.118707096902654e-05
F-3.2164264212042326e-06
F0.5767293572425842
F0.8169352412223816
tp1265
tp1266
a((F-0.5032713413238525
F0.1869231015443802
F-0.7015038132667542
tp1267
(F1.4974495570641011e-05
F-4.5099248382030055e-05
F-0.06732635200023651
F0.9977310299873352
tp1268
tp1269
a((F0.15310552716255188
F0.8165057897567749
F-0.7016038298606873
tp1270
(F-2.4919556381064467e-05
F-1.3508936717698816e-05
F-0.37582847476005554
F0.9266892671585083
tp1271
tp1272
a((F0.45609110593795776
F0.642997145652771
F-0.7019150853157043
tp1273
(F-6.648465932812542e-05
F2.0117886379011907e-06
F-0.5251299738883972
F0.8510220050811768
tp1274
tp1275
a((F-0.6186140179634094
F0.2902774214744568
F-0.7021219730377197
tp1276
(F-7.580783130833879e-05
F-0.00010195536015089601
F0.3845064043998718
F0.9231222867965698
tp1277
tp1278
a((F-0.6333436369895935
F-0.5361424684524536
F-0.7021352052688599
tp1279
(F-7.980534428497776e-05
F-9.792991477297619e-05
F0.887630820274353
F0.4605555534362793
tp1280
tp1281
a((F-0.1246451735496521
F0.8571179509162903
F-0.7016047835350037
tp1282
(F-3.615526657085866e-05
F-4.3299355638737325e-06
F0.10759533196687698
F0.994194746017456
tp1283
tp1284
a((F0.11308920383453369
F-0.4726880192756653
F-0.7017749547958374
tp1285
(F7.48497259337455e-05
F1.1495461876620539e-05
F0.641389787197113
F0.7672152519226074
tp1286
tp1287
a((F-0.4549410343170166
F0.24500048160552979
F-0.7020542621612549
tp1288
(F-1.8950870071421377e-05
F-8.719516335986555e-05
F-0.009195076301693916
F0.999957799911499
tp1289
tp1290
a((F0.2477017343044281
F0.581212043762207
F-0.7016562819480896
tp1291
(F-2.562561712693423e-05
F-3.682457099785097e-05
F-0.7236320376396179
F0.6901860237121582
tp1292
tp1293
a((F-0.5952955484390259
F-0.4849347472190857
F-0.7018210291862488
tp1294
(F-1.3012740055273753e-05
F-7.24165074643679e-05
F0.6911177039146423
F0.7227422595024109
tp1295
tp1296
a((F0.09594345092773438
F0.5649532079696655
F-0.7015929222106934
tp1297
(F-4.387123681226512e-06
F-3.705116978380829e-05
F-0.8360048532485962
F0.5487218499183655
tp1298
tp1299
a((F0.3331634998321533
F0.7127171158790588
F-0.7017345428466797
tp1300
(F-3.26197587128263e-05
F-1.5817709936527535e-05
F-0.5800705552101135
F0.8145662546157837
tp1301
tp1302
a((F-0.6685567498207092
F0.45507514476776123
F-0.7022272944450378
tp1303
(F-0.00012129428796470165
F-8.588708442403004e-05
F0.57701575756073
F0.8167330622673035
tp1304
tp1305
a((F-0.4227437376976013
F0.3929651081562042
F-0.7021346092224121
tp1306
(F2.5367612579429988e-06
F-0.00013770800433121622
F-0.1482103317975998
F0.9889559149742126
tp1307
tp1308
a((F-0.4788919687271118
F-0.4763128459453583
F-0.7017536759376526
tp1309
(F6.7929577198810875e-06
F-6.448492786148563e-05
F0.6065402626991272
F0.7950528264045715
tp1310
tp1311
a((F-0.46379411220550537
F-0.4495283365249634
F-0.7021507620811462
tp1312
(F-5.035707727074623e-05
F-0.00011666228238027543
F0.8333121538162231
F0.5528026819229126
tp1313
tp1314
a((F0.3661872446537018
F0.31511223316192627
F-0.7020487189292908
tp1315
(F7.727932097623125e-05
F5.0419705075910315e-05
F0.8772640228271484
F-0.48000797629356384
tp1316
tp1317
a((F-0.28141549229621887
F0.6069103479385376
F-0.702096164226532
tp1318
(F-9.360035619465634e-05
F-4.5597982534673065e-05
F0.2841467559337616
F0.958780825138092
tp1319
tp1320
a((F-0.8411951065063477
F-0.18485277891159058
F-0.7015999555587769
tp1321
(F-3.7791349313920364e-05
F-8.527428690285888e-06
F0.8983103632926941
F0.4393616318702698
tp1322
tp1323
a((F-0.6271471381187439
F0.37312155961990356
F-0.7021982073783875
tp1324
(F-6.205389945534989e-05
F-0.00012878527923021466
F0.3139219880104065
F0.9494487047195435
tp1325
tp1326
a((F-0.5405753254890442
F-0.6586799621582031
F-0.7019575834274292
tp1327
(F-8.352061558980495e-05
F-5.9530404541874304e-05
F0.9840664267539978
F0.17780104279518127
tp1328
tp1329
a((F-0.4858700633049011
F-0.18097242712974548
F-0.7021244168281555
tp1330
(F1.7773156287148595e-05
F-0.00013909976405557245
F0.2823254466056824
F0.9593188166618347
tp1331
tp1332
a((F-0.36540690064430237
F0.25874578952789307
F-0.7017426490783691
tp1333
(F-2.2426413579523796e-06
F-7.63384232413955e-05
F-0.2797020971775055
F0.9600868821144104
tp1334
tp1335
a((F-0.3780415952205658
F-0.2652627229690552
F-0.7019332647323608
tp1336
(F5.406589843914844e-05
F-8.341779903275892e-05
F0.03468741104006767
F0.9993982315063477
tp1337
tp1338
a((F-0.07158762216567993
F-0.8892595767974854
F-0.7015853524208069
tp1339
(F-1.2006012184428982e-05
F-2.9753988201264292e-05
F0.9984863996505737
F-0.05500011146068573
tp1340
tp1341
a((F-0.5460339784622192
F0.4743712842464447
F-0.702186644077301
tp1342
(F-9.60951583692804e-05
F-0.000112340429041069
F0.3702000379562378
F0.9289522171020508
tp1343
tp1344
a((F-0.38501161336898804
F0.5358037948608398
F-0.7021692991256714
tp1345
(F-5.926430458202958e-05
F-0.00013606388529296964
F0.049823783338069916
F0.9987579584121704
tp1346
tp1347
a((F-0.20775681734085083
F0.5659883618354797
F-0.7018660306930542
tp1348
(F3.6907888443238335e-06
F-9.76886585704051e-05
F-0.4982645809650421
F0.8670250773429871
tp1349
tp1350
a((F-0.5025694370269775
F0.21353000402450562
F-0.7016285061836243
tp1351
(F1.0089222087117378e-05
F-4.807342338608578e-05
F-0.07501272857189178
F0.9971826672554016
tp1352
tp1353
a((F-0.7001901268959045
F0.22707301378250122
F-0.7019513249397278
tp1354
(F-6.0652550018858165e-05
F-7.776218262733892e-05
F0.4681767523288727
F0.8836347460746765
tp1355
tp1356
a((F-0.09003801643848419
F-0.8709171414375305
F-0.7017505168914795
tp1357
(F3.22131455732233e-07
F-3.601428761612624e-05
F0.9839739203453064
F0.17831286787986755
tp1358
tp1359
a((F-0.30965596437454224
F-0.5410781502723694
F-0.701651394367218
tp1360
(F2.370848051214125e-05
F-3.765565998037346e-05
F0.5991933941841125
F0.8006043434143066
tp1361
tp1362
a((F-0.6708135604858398
F0.11949563026428223
F-0.7016362547874451
tp1363
(F-1.3887260138290003e-05
F-4.7097637434490025e-05
F0.1577214151620865
F0.9874836206436157
tp1364
tp1365
a((F-0.6723698377609253
F0.43744978308677673
F-0.7022196054458618
tp1366
(F-0.0001195925215142779
F-9.193809819407761e-05
F0.5705701112747192
F0.8212489485740662
tp1367
tp1368
a((F-0.5472894906997681
F0.29969313740730286
F-0.7018551230430603
tp1369
(F-2.499428956070915e-05
F-8.347698167199269e-05
F0.09807571768760681
F0.9951788783073425
tp1370
tp1371
a((F0.08066290616989136
F-0.5439651608467102
F-0.702084481716156
tp1372
(F9.605402738088742e-05
F-4.500350769376382e-05
F0.924025297164917
F0.382331520318985
tp1373
tp1374
a((F-0.23257553577423096
F-0.5762479305267334
F-0.7020891904830933
tp1375
(F-1.6672647689119913e-05
F-9.400621638633311e-05
F0.9388101696968079
F0.3444349765777588
tp1376
tp1377
a((F-0.7550739645957947
F0.18937736749649048
F-0.7020538449287415
tp1378
(F-8.960675040725619e-05
F-7.54941429477185e-05
F0.6680908799171448
F0.7440797090530396
tp1379
tp1380
a((F-0.828366756439209
F0.010819010436534882
F-0.7016404867172241
tp1381
(F-2.9968205126351677e-05
F-2.8412991014192812e-05
F0.679097592830658
F0.7340480089187622
tp1382
tp1383
a((F-0.5587283372879028
F0.01848548650741577
F-0.7021325826644897
tp1384
(F-1.008429899229668e-05
F-0.00013493845472112298
F0.33936360478401184
F0.9406552314758301
tp1385
tp1386
a((F-0.051738619804382324
F-0.7238025665283203
F-0.7017285823822021
tp1387
(F2.1992736947140656e-05
F-4.538812208920717e-05
F0.9370145797729492
F0.34929049015045166
tp1388
tp1389
a((F0.06675630807876587
F0.44867491722106934
F-0.7017490267753601
tp1390
(F7.717575499555096e-06
F-7.201407424872741e-05
F-0.8332131505012512
F0.5529518723487854
tp1391
tp1392
a((F-0.7838759422302246
F0.05119830369949341
F-0.7017048001289368
tp1393
(F-2.9220946089481004e-05
F-4.091728987987153e-05
F0.5635908246040344
F0.826054036617279
tp1394
tp1395
a((F-0.06607186794281006
F-0.5121340155601501
F-0.7015780806541443
tp1396
(F3.6992998502682894e-05
F-4.96949451189721e-06
F0.420531690120697
F0.9072780013084412
tp1397
tp1398
a((F-0.29931652545928955
F0.818518877029419
F-0.7016115784645081
tp1399
(F-3.758457751246169e-05
F3.3969547530432465e-07
F0.35120999813079834
F0.9362967014312744
tp1400
tp1401
a((F0.19292497634887695
F-0.5349668264389038
F-0.7018259167671204
tp1402
(F6.085872882977128e-05
F5.470482847158564e-06
F0.6856420636177063
F0.7279389500617981
tp1403
tp1404
a((F-0.4540269374847412
F0.23250161111354828
F-0.7015880346298218
tp1405
(F2.980251520057209e-05
F-3.214284879504703e-05
F-0.4782119691371918
F0.8782444596290588
tp1406
tp1407
a((F-0.3165273070335388
F-0.5511519312858582
F-0.7021123766899109
tp1408
(F-4.4915152102475986e-05
F-9.991208935389295e-05
F0.9367342591285706
F0.35004130005836487
tp1409
tp1410
a((F-0.18166404962539673
F-0.4904800057411194
F-0.7018026113510132
tp1411
(F4.9091111577581614e-05
F-3.401440699235536e-05
F0.5904178023338318
F0.8070977926254272
tp1412
tp1413
a((F0.12439525127410889
F-0.6311088800430298
F-0.7015864253044128
tp1414
(F3.811964052147232e-05
F-9.457858141104225e-06
F0.8021498918533325
F0.597122848033905
tp1415
tp1416
a((F-0.5628311038017273
F0.2768581509590149
F-0.701616644859314
tp1417
(F1.067729954229435e-05
F-4.519126741797663e-05
F-0.09619001299142838
F0.9953629374504089
tp1418
tp1419
a((F-0.45022183656692505
F0.478940486907959
F-0.7021740078926086
tp1420
(F-6.865265459055081e-05
F-0.00013123353710398078
F0.1682884246110916
F0.9857377409934998
tp1421
tp1422
a((F-0.2901182174682617
F-0.4582147002220154
F-0.7019563913345337
tp1423
(F3.994433063780889e-05
F-6.527936784550548e-05
F0.5949203372001648
F0.8037846684455872
tp1424
tp1425
a((F-0.028286978602409363
F-0.6945417523384094
F-0.7017205953598022
tp1426
(F3.454994293861091e-05
F-2.7035655875806697e-05
F0.8360242247581482
F0.548692524433136
tp1427
tp1428
a((F-0.28168785572052
F0.7971856594085693
F-0.7017177939414978
tp1429
(F-4.907669426756911e-05
F-1.3287546607898548e-05
F0.23867495357990265
F0.9710994958877563
tp1430
tp1431
a((F-0.46067070960998535
F0.0968230813741684
F-0.7019433379173279
tp1432
(F3.109383396804333e-05
F-0.00011332932626828551
F0.03669095039367676
F0.9993266463279724
tp1433
tp1434
a((F0.30676695704460144
F0.46028685569763184
F-0.7016573548316956
tp1435
(F2.653371666383464e-05
F3.8969308661762625e-05
F0.8685047030448914
F-0.4956808090209961
tp1436
tp1437
a((F-0.5614827871322632
F0.5547876358032227
F-0.7022066712379456
tp1438
(F-0.00010254210792481899
F-9.826625318964943e-05
F0.38728100061416626
F0.9219617247581482
tp1439
tp1440
a((F-0.4780327081680298
F0.06391486525535583
F-0.7020137906074524
tp1441
(F3.1674630008637905e-05
F-0.00011946137237828225
F-0.08761576563119888
F0.9961544275283813
tp1442
tp1443
a((F0.4889712333679199
F0.39471861720085144
F-0.7019789814949036
tp1444
(F-7.801102037774399e-05
F-2.745431993389502e-05
F-0.8514302968978882
F0.5244677662849426
tp1445
tp1446
a((F-0.4071066379547119
F0.5898840427398682
F-0.7021556496620178
tp1447
(F-0.00010432849376229569
F-5.282621714286506e-05
F0.4030502140522003
F0.9151778817176819
tp1448
tp1449
a((F-0.3708696961402893
F0.513439953327179
F-0.7021335363388062
tp1450
(F-7.628231833223253e-05
F-0.00011194797116331756
F0.16171735525131226
F0.9868371486663818
tp1451
tp1452
a((F-0.06314417719841003
F-0.3251970410346985
F-0.7020028233528137
tp1453
(F9.003225568449125e-05
F-1.5869446770011564e-06
F0.45197969675064087
F0.892028272151947
tp1454
tp1455
a((F-0.23834621906280518
F-0.608428955078125
F-0.7016261219978333
tp1456
(F2.3285154384211637e-05
F-3.378809924470261e-05
F0.7158085703849792
F0.6982965469360352
tp1457
tp1458
a((F-0.21136492490768433
F0.8011601567268372
F-0.7017062902450562
tp1459
(F-4.1031908040167764e-05
F-3.150498741888441e-05
F-0.007648646831512451
F0.9999708533287048
tp1460
tp1461
a((F-0.5132705569267273
F0.16120067238807678
F-0.7016662359237671
tp1462
(F1.2651368706428912e-05
F-5.7367346016690135e-05
F-0.1430278867483139
F0.9897186756134033
tp1463
tp1464
a((F-0.005428781732916832
F0.5326136946678162
F-0.7020315527915955
tp1465
(F-2.9712027753703296e-05
F-0.00010619651584420353
F-0.4449581503868103
F0.8955513834953308
tp1466
tp1467
a((F0.02073642611503601
F0.5997264981269836
F-0.7016703486442566
tp1468
(F-9.346871593152173e-06
F-5.790418799733743e-05
F-0.6319333910942078
F0.7750226855278015
tp1469
tp1470
a((F-0.5090330243110657
F-0.5524801015853882
F-0.7017521858215332
tp1471
(F-1.108779451897135e-05
F-6.560212204931304e-05
F0.7617475390434265
F0.6478740572929382
tp1472
tp1473
a((F-0.7563505172729492
F-0.16336466372013092
F-0.7020373344421387
tp1474
(F-7.508131966460496e-05
F-8.222183532780036e-05
F0.7129333019256592
F0.7012317776679993
tp1475
tp1476
a((F-0.022403165698051453
F0.5689479112625122
F-0.7016507387161255
tp1477
(F2.0124189177295193e-06
F-4.694184099207632e-05
F-0.7829539775848389
F0.6220796704292297
tp1478
tp1479
a((F-0.5733858942985535
F-0.26929232478141785
F-0.7021715044975281
tp1480
(F-5.1019433158217e-05
F-0.00013439876784104854
F0.6704604625701904
F0.7419453263282776
tp1481
tp1482
a((F-0.33346855640411377
F0.8336015343666077
F-0.701752781867981
tp1483
(F-3.8470159779535607e-05
F4.404452738526743e-06
F0.420215368270874
F0.9074243903160095
tp1484
tp1485
a((F-0.7294631600379944
F-0.15195943415164948
F-0.7014811635017395
tp1486
(F-4.494718450587243e-05
F1.5923703813314205e-06
F0.9397496581077576
F0.3418635427951813
tp1487
tp1488
a((F-0.48457300662994385
F-0.4054718017578125
F-0.701931357383728
tp1489
(F1.1435609849286266e-05
F-8.797136979410425e-05
F0.5241968631744385
F0.8515971302986145
tp1490
tp1491
a((F-0.011809766292572021
F0.8758431673049927
F-0.7016259431838989
tp1492
(F-3.4327378671150655e-05
F-3.0649459858977934e-06
F-0.0075910333544015884
F0.9999712705612183
tp1493
tp1494
a((F-0.614510715007782
F-0.4759470522403717
F-0.7022042870521545
tp1495
(F-8.546257595298812e-05
F-0.00011594914394663647
F0.8525717258453369
F0.5226103067398071
tp1496
tp1497
a((F-0.2730880379676819
F0.5374159812927246
F-0.7021369338035583
tp1498
(F-4.370630267658271e-05
F-0.00013529384159483016
F-0.10985364019870758
F0.9939477443695068
tp1499
tp1500
a((F-0.7284436225891113
F0.21754473447799683
F-0.7022213339805603
tp1501
(F-0.00012617165339179337
F-7.869628461776301e-05
F0.7348108887672424
F0.6782720685005188
tp1502
tp1503
a((F0.3259906768798828
F0.6531000137329102
F-0.7015784978866577
tp1504
(F-2.955340278276708e-05
F-1.8489299691282213e-05
F-0.6311277747154236
F0.7756788730621338
tp1505
tp1506
a((F-0.23063123226165771
F0.4768586754798889
F-0.7021037936210632
tp1507
(F2.3505173885496333e-05
F-0.00014899020607117563
F-0.4778176248073578
F0.878459095954895
tp1508
tp1509
a((F-0.4597831964492798
F-0.36275428533554077
F-0.7017413377761841
tp1510
(F2.419564589217771e-05
F-6.07375186518766e-05
F0.31322619318962097
F0.9496785998344421
tp1511
tp1512
a((F-0.4640330672264099
F0.4954896569252014
F-0.7021725177764893
tp1513
(F-0.00010461522469995543
F-8.59093779581599e-05
F0.3987247049808502
F0.9170706272125244
tp1514
tp1515
a((F-0.4355083107948303
F-0.3531953692436218
F-0.7020143866539001
tp1516
(F2.2537607947015204e-05
F-9.887738269753754e-05
F0.46026450395584106
F0.8877818584442139
tp1517
tp1518
a((F-0.38249510526657104
F0.0713462233543396
F-0.7018336057662964
tp1519
(F5.643991971737705e-05
F-9.293464245274663e-05
F-0.2671701908111572
F0.9636493921279907
tp1520
tp1521
a((F-0.06432601809501648
F-0.383778840303421
F-0.7019603848457336
tp1522
(F8.406985580222681e-05
F-4.297435680200579e-06
F0.4816018044948578
F0.8763900995254517
tp1523
tp1524
a((F-0.07832524180412292
F0.7785923480987549
F-0.7017824053764343
tp1525
(F-3.6337638448458165e-05
F-4.214588989270851e-05
F-0.2503170073032379
F0.9681639671325684
tp1526
tp1527
as.