(dp0
S'arm'
p1
S'left'
p2
sS'carry_conf'
p3
(lp4
F0.67717021
aF-0.34313199
aF1.2
aF-1.46688405
aF1.24223229
aF-1.95442826
aF2.22254125
asS'tool_link'
p5
I73
sS'ikfast'
p6
I01
sS'grasp_type'
p7
S'top'
p8
sS'gripper_from_base'
p9
(lp10
((F0.8410000205039978
F-0.49550509452819824
F-0.20764565467834473
tp11
(F-0.31146273016929626
F-0.6348157525062561
F0.31146273016929626
F0.6348157525062561
tp12
tp13
a((F0.8410000205039978
F-0.5900371670722961
F0.5117104053497314
tp14
(F-0.5213454961776733
F-0.477701872587204
F0.5213454961776733
F0.47770172357559204
tp15
tp16
a((F0.8410000205039978
F0.5567115545272827
F-0.41367483139038086
tp17
(F0.6675402522087097
F-0.2332165688276291
F-0.6675402522087097
F0.2332165688276291
tp18
tp19
a((F0.8410000205039978
F0.6345995664596558
F0.04147597402334213
tp20
(F0.584808349609375
F-0.3974912464618683
F-0.584808349609375
F0.3974912464618683
tp21
tp22
a((F0.8410000801086426
F0.4988566040992737
F-0.18994134664535522
tp23
(F0.5967252850532532
F-0.37936651706695557
F-0.5967252254486084
F0.379366397857666
tp24
tp25
a((F0.8410000205039978
F0.6246488690376282
F0.024443209171295166
tp26
(F0.5635643601417542
F-0.42707762122154236
F-0.5635643601417542
F0.42707762122154236
tp27
tp28
a((F0.8410000205039978
F-0.6517672538757324
F0.13353607058525085
tp29
(F0.5706106424331665
F0.4176163971424103
F-0.5706106424331665
F-0.4176163971424103
tp30
tp31
a((F0.8410000205039978
F0.1946646273136139
F-0.7668091058731079
tp32
(F-0.550472617149353
F0.44382402300834656
F0.5504726767539978
F-0.44382402300834656
tp33
tp34
a((F0.8410002589225769
F0.463382750749588
F-0.7936607599258423
tp35
(F0.6567543148994446
F-0.2620570659637451
F-0.656754195690155
F0.26205694675445557
tp36
tp37
a((F0.8410000205039978
F0.360440194606781
F-0.29239755868911743
tp38
(F0.5449445843696594
F-0.4505944550037384
F-0.5449445843696594
F0.4505944550037384
tp39
tp40
a((F0.8410000205039978
F0.8384090662002563
F-0.14765743911266327
tp41
(F0.7070701122283936
F0.007198432460427284
F-0.7070701122283936
F-0.007198443170636892
tp42
tp43
a((F0.8410000205039978
F-0.47383758425712585
F0.22355115413665771
tp44
(F-0.3227803111076355
F-0.6291365027427673
F0.3227803707122803
F0.6291366815567017
tp45
tp46
a((F0.8410001397132874
F-0.6653267741203308
F0.6996448040008545
tp47
(F-0.11565996706485748
F-0.6975834965705872
F0.11566002666950226
F0.6975835561752319
tp48
tp49
a((F0.8410000205039978
F-0.7657073736190796
F0.012396462261676788
tp50
(F-0.06851843744516373
F-0.7037792205810547
F0.06851843744516373
F0.7037792205810547
tp51
tp52
a((F0.8410001397132874
F-0.08456265926361084
F-0.5518404245376587
tp53
(F-0.055801570415496826
F-0.7049016356468201
F0.055801503360271454
F0.7049014568328857
tp54
tp55
a((F0.8410000205039978
F0.5402857065200806
F-0.3230987787246704
tp56
(F0.5070589184761047
F-0.4928399622440338
F-0.5070589184761047
F0.4928399622440338
tp57
tp58
a((F0.8410000205039978
F0.15587931871414185
F-0.8918231725692749
tp59
(F0.5625631213188171
F-0.4283955693244934
F-0.5625631213188171
F0.4283955693244934
tp60
tp61
a((F0.8410000205039978
F0.6726395487785339
F-0.4029598534107208
tp62
(F0.4608265161514282
F-0.5363197326660156
F-0.4608265161514282
F0.5363197326660156
tp63
tp64
a((F0.8410001397132874
F-0.6425164341926575
F-0.25674787163734436
tp65
(F0.08598627895116806
F-0.7018593549728394
F-0.0859861671924591
F0.7018591165542603
tp66
tp67
a((F0.8410000205039978
F0.6104183197021484
F0.7397933006286621
tp68
(F-0.5454434156417847
F-0.4499906301498413
F0.5454434156417847
F0.4499906301498413
tp69
tp70
a((F0.8410000205039978
F-0.2754640579223633
F-0.4153566360473633
tp71
(F-0.3622440695762634
F-0.6072719693183899
F0.3622440695762634
F0.6072719097137451
tp72
tp73
a((F0.8410000205039978
F-0.30852213501930237
F-0.8370144367218018
tp74
(F0.2591366767883301
F-0.6579119563102722
F-0.2591366767883301
F0.6579119563102722
tp75
tp76
a((F0.841000497341156
F-0.7422202825546265
F-0.6357411742210388
tp77
(F0.2694684565067291
F-0.6537485122680664
F-0.2694683074951172
F0.6537480354309082
tp78
tp79
a((F0.840999960899353
F0.5462173223495483
F-0.378526896238327
tp80
(F0.2624962627887726
F-0.656578779220581
F-0.2624962627887726
F0.6565788388252258
tp81
tp82
a((F0.8410000205039978
F-0.3822914958000183
F0.4071044623851776
tp83
(F0.7041302919387817
F0.06481118500232697
F-0.7041302919387817
F-0.06481118500232697
tp84
tp85
a((F0.8410000205039978
F-0.17344719171524048
F0.8099437952041626
tp86
(F-0.45034947991371155
F-0.5451470017433167
F0.45034947991371155
F0.5451470017433167
tp87
tp88
a((F0.8410000801086426
F0.2187192142009735
F0.708702564239502
tp89
(F-0.6231822967529297
F-0.3341314196586609
F0.6231823563575745
F0.33413150906562805
tp90
tp91
a((F0.8410000801086426
F-0.868680477142334
F0.32398226857185364
tp92
(F-0.26544278860092163
F-0.6553930640220642
F0.2654428780078888
F0.6553929448127747
tp93
tp94
a((F0.8410000205039978
F0.5509516000747681
F-0.31459325551986694
tp95
(F0.5209228992462158
F-0.4781624674797058
F-0.5209228992462158
F0.4781624674797058
tp96
tp97
a((F0.8409999012947083
F0.7635289430618286
F0.022851288318634033
tp98
(F-0.6663795709609985
F0.2365126758813858
F0.6663796901702881
F-0.2365127056837082
tp99
tp100
a((F0.8410000205039978
F-0.6933786869049072
F-0.5085132122039795
tp101
(F0.2638263702392578
F-0.6560454368591309
F-0.2638263702392578
F0.6560454964637756
tp102
tp103
a((F0.8410000801086426
F-0.7419081926345825
F-0.13028965890407562
tp104
(F0.10674253851175308
F-0.6990034580230713
F-0.1067424938082695
F0.6990036964416504
tp105
tp106
a((F0.8410001397132874
F0.481779009103775
F0.2190205454826355
tp107
(F-0.5086573362350464
F0.4911898970603943
F0.5086576342582703
F-0.4911898672580719
tp108
tp109
a((F0.8410000205039978
F0.6933701038360596
F0.38613617420196533
tp110
(F-0.7068467736244202
F0.019174013286828995
F0.7068468332290649
F-0.019173944368958473
tp111
tp112
a((F0.8409997820854187
F0.7732235193252563
F0.27465903759002686
tp113
(F0.6803726553916931
F-0.19259624183177948
F-0.6803722381591797
F0.19259625673294067
tp114
tp115
a((F0.8410000205039978
F0.3232555091381073
F0.38967230916023254
tp116
(F0.6744940876960754
F-0.21226809918880463
F-0.6744940876960754
F0.21226809918880463
tp117
tp118
a((F0.8410000205039978
F0.2801651060581207
F0.58887779712677
tp119
(F0.7050292491912842
F-0.054164670407772064
F-0.7050292491912842
F0.054164670407772064
tp120
tp121
a((F0.8409999012947083
F-0.6637857556343079
F-0.16032247245311737
tp122
(F-0.27160751819610596
F-0.6528624296188354
F0.27160751819610596
F0.6528624296188354
tp123
tp124
a((F0.8410000205039978
F-0.42114198207855225
F-0.6195640563964844
tp125
(F0.31127023696899414
F-0.6349101662635803
F-0.31127023696899414
F0.6349101662635803
tp126
tp127
a((F0.8410000205039978
F-0.8465914130210876
F0.479144424200058
tp128
(F-0.11022862046957016
F-0.6984623074531555
F0.11022862046957016
F0.6984623074531555
tp129
tp130
a((F0.8410000801086426
F-0.25713929533958435
F-0.5204466581344604
tp131
(F0.028422433882951736
F-0.7065353393554688
F-0.028422469273209572
F0.706535279750824
tp132
tp133
a((F0.8409998416900635
F-0.14832428097724915
F0.8035231828689575
tp134
(F0.6283789277076721
F0.32425302267074585
F-0.6283788084983826
F-0.3242528736591339
tp135
tp136
a((F0.8410000801086426
F0.315659761428833
F0.4147922992706299
tp137
(F-0.7047590613365173
F-0.057573169469833374
F0.7047591209411621
F0.05757318437099457
tp138
tp139
a((F0.8410000205039978
F0.8795550465583801
F-0.002422332763671875
tp140
(F0.6922786831855774
F-0.14404958486557007
F-0.6922786831855774
F0.14404958486557007
tp141
tp142
a((F0.8410000205039978
F-0.37748658657073975
F0.9028793573379517
tp143
(F-0.3537155091762543
F-0.6122788786888123
F0.3537155091762543
F0.6122788786888123
tp144
tp145
a((F0.8410000205039978
F0.23008427023887634
F-0.5796473026275635
tp146
(F0.39377477765083313
F-0.587317168712616
F-0.39377477765083313
F0.587317168712616
tp147
tp148
a((F0.8409998416900635
F-0.20616121590137482
F0.6917833685874939
tp149
(F0.5084707140922546
F0.4913833737373352
F-0.5084705352783203
F-0.49138331413269043
tp150
tp151
a((F0.8410000205039978
F-0.43308284878730774
F0.5532813668251038
tp152
(F-0.4104257822036743
F-0.5758043527603149
F0.4104257822036743
F0.5758043527603149
tp153
tp154
a((F0.8410000205039978
F0.09103064239025116
F-0.3596439063549042
tp155
(F0.1973554641008377
F-0.6790072321891785
F-0.1973554641008377
F0.6790072321891785
tp156
tp157
a((F0.8410000205039978
F0.8253694772720337
F0.4596244990825653
tp158
(F0.6871494650840759
F0.16680988669395447
F-0.6871494650840759
F-0.16680988669395447
tp159
tp160
a((F0.8410000205039978
F0.9574542045593262
F-0.23636096715927124
tp161
(F0.7036691308021545
F0.069640152156353
F-0.7036691308021545
F-0.069640152156353
tp162
tp163
a((F0.8410000205039978
F0.41498371958732605
F-0.5522360801696777
tp164
(F0.3640114367008209
F-0.6062142848968506
F-0.36401140689849854
F0.6062142252922058
tp165
tp166
a((F0.8410000205039978
F0.18351948261260986
F-0.856498658657074
tp167
(F0.5710171461105347
F-0.41706037521362305
F-0.5710171461105347
F0.41706037521362305
tp168
tp169
a((F0.8410000205039978
F0.7202373147010803
F-0.09735995531082153
tp170
(F0.5566526055335999
F-0.4360479712486267
F-0.5566525459289551
F0.4360479712486267
tp171
tp172
a((F0.8410000205039978
F-0.17597630620002747
F0.640752911567688
tp173
(F0.6968534588813782
F0.11998020112514496
F-0.6968534588813782
F-0.11998020112514496
tp174
tp175
a((F0.8410002589225769
F-0.7100714445114136
F0.24995538592338562
tp176
(F-0.26049715280532837
F-0.6573745012283325
F0.2604972720146179
F0.6573745012283325
tp177
tp178
a((F0.8410000205039978
F-0.33137401938438416
F0.5269080400466919
tp179
(F0.6622735857963562
F0.24777741730213165
F-0.6622735857963562
F-0.24777741730213165
tp180
tp181
a((F0.8410000205039978
F0.00929763913154602
F0.6316852569580078
tp182
(F-0.4900210201740265
F-0.5097836852073669
F0.4900210201740265
F0.5097836852073669
tp183
tp184
a((F0.8409998416900635
F-0.30557119846343994
F0.48294419050216675
tp185
(F0.5918410420417786
F0.3869422674179077
F-0.591840922832489
F-0.38694217801094055
tp186
tp187
a((F0.8410000205039978
F0.42718881368637085
F-0.2129199206829071
tp188
(F0.005939953960478306
F-0.7070817947387695
F-0.005939953960478306
F0.7070817947387695
tp189
tp190
a((F0.8410001397132874
F-0.5760931372642517
F0.8054824471473694
tp191
(F-0.1899484544992447
F-0.6811164617538452
F0.1899484395980835
F0.6811164617538452
tp192
tp193
a((F0.8409999012947083
F0.6499596834182739
F0.4629756808280945
tp194
(F-0.6995803713798523
F-0.10289454460144043
F0.6995804309844971
F0.10289429873228073
tp195
tp196
a((F0.8410000205039978
F-0.3475707769393921
F0.5480962991714478
tp197
(F0.6912878751754761
F0.14873161911964417
F-0.6912878751754761
F-0.14873161911964417
tp198
tp199
a((F0.8410000205039978
F-0.15196657180786133
F0.5757229924201965
tp200
(F0.6950932145118713
F-0.1297898292541504
F-0.6950932145118713
F0.1297898292541504
tp201
tp202
a((F0.8410000205039978
F-0.257906973361969
F-0.6248273849487305
tp203
(F0.11717511713504791
F-0.6973305940628052
F-0.11717511713504791
F0.6973305940628052
tp204
tp205
a((F0.8409999012947083
F0.8488569259643555
F-0.14061082899570465
tp206
(F0.6621933579444885
F-0.24799193441867828
F-0.6621931791305542
F0.24799197912216187
tp207
tp208
a((F0.8410000205039978
F0.4386898875236511
F0.2977052330970764
tp209
(F0.4168592393398285
F-0.571164071559906
F-0.4168592393398285
F0.5711640119552612
tp210
tp211
a((F0.8410000801086426
F0.336261510848999
F-0.8354727029800415
tp212
(F0.6053650975227356
F-0.3654218316078186
F-0.6053650379180908
F0.3654218018054962
tp213
tp214
a((F0.8410000801086426
F0.1434336006641388
F0.36131203174591064
tp215
(F-0.7054593563079834
F-0.04823858663439751
F0.705459475517273
F0.048238545656204224
tp216
tp217
a((F0.840999960899353
F-0.8090416193008423
F0.23204660415649414
tp218
(F-0.22936248779296875
F-0.6688743233680725
F0.22936244308948517
F0.6688743829727173
tp219
tp220
a((F0.8410000205039978
F-0.22008150815963745
F-0.390070378780365
tp221
(F-0.2825147807598114
F-0.6482170820236206
F0.2825148403644562
F0.6482170820236206
tp222
tp223
a((F0.8410000205039978
F0.1205703467130661
F0.7283024191856384
tp224
(F0.7065788507461548
F0.027319088578224182
F-0.7065788507461548
F-0.027319088578224182
tp225
tp226
a((F0.8410000205039978
F0.23419421911239624
F-0.6189297437667847
tp227
(F0.29614266753196716
F-0.6421055197715759
F-0.29614266753196716
F0.6421055197715759
tp228
tp229
a((F0.8410000205039978
F-0.4263645112514496
F0.4126230478286743
tp230
(F0.6890791654586792
F0.15865036845207214
F-0.6890791654586792
F-0.15865036845207214
tp231
tp232
a((F0.8410000801086426
F0.5546361207962036
F0.10691794753074646
tp233
(F0.3498038351535797
F-0.6145219802856445
F-0.3498038351535797
F0.6145219802856445
tp234
tp235
a((F0.8410000205039978
F0.13375577330589294
F0.7956101894378662
tp236
(F0.6639331579208374
F0.24329577386379242
F-0.6639331579208374
F-0.24329577386379242
tp237
tp238
a((F0.8409998416900635
F-0.03050146996974945
F0.49878454208374023
tp239
(F0.6967844367027283
F-0.12038085609674454
F-0.696784257888794
F0.12038083374500275
tp240
tp241
a((F0.8410000205039978
F0.46979761123657227
F-0.7077349424362183
tp242
(F-0.5331053733825684
F0.46454131603240967
F0.5331053733825684
F-0.46454131603240967
tp243
tp244
a((F0.8410000205039978
F-0.8232206106185913
F-0.10512235760688782
tp245
(F0.014479946345090866
F-0.7069584727287292
F-0.014479936100542545
F0.7069584727287292
tp246
tp247
a((F0.8410000205039978
F-0.8256012797355652
F-0.32870128750801086
tp248
(F0.1717766672372818
F-0.685924768447876
F-0.1717766523361206
F0.6859248280525208
tp249
tp250
a((F0.8410001993179321
F-0.44576701521873474
F0.24603933095932007
tp251
(F-0.30710726976394653
F-0.6369341611862183
F0.3071072995662689
F0.6369341611862183
tp252
tp253
a((F0.8410000205039978
F0.9039427042007446
F-0.2246643751859665
tp254
(F0.7021750211715698
F-0.08336873352527618
F-0.7021750211715698
F0.08336875587701797
tp255
tp256
a((F0.8410000205039978
F0.544487476348877
F-0.10588058829307556
tp257
(F0.6421512365341187
F-0.2960435450077057
F-0.6421512365341187
F0.2960435450077057
tp258
tp259
a((F0.8410000205039978
F-0.5685909390449524
F-0.5321125388145447
tp260
(F0.015689285472035408
F-0.7069327235221863
F-0.015689285472035408
F0.7069327235221863
tp261
tp262
a((F0.840999960899353
F0.3270203471183777
F-0.716835618019104
tp263
(F0.6065479516983032
F-0.36345499753952026
F-0.6065479516983032
F0.36345505714416504
tp264
tp265
a((F0.8410000801086426
F0.42673459649086
F0.7261120080947876
tp266
(F-0.6716772317886353
F-0.22101955115795135
F0.6716773509979248
F0.22101955115795135
tp267
tp268
a((F0.8410001397132874
F0.19848796725273132
F0.42554616928100586
tp269
(F-0.7066081166267395
F0.026549439877271652
F0.7066082954406738
F-0.0265493243932724
tp270
tp271
a((F0.8410000205039978
F-0.4968651533126831
F-0.4753994941711426
tp272
(F-0.17126506567001343
F-0.686052680015564
F0.17126505076885223
F0.6860527396202087
tp273
tp274
a((F0.8410001397132874
F0.48534148931503296
F-0.2049221247434616
tp275
(F0.09660130739212036
F-0.7004770636558533
F-0.09660130739212036
F0.7004770636558533
tp276
tp277
a((F0.8410000205039978
F0.7484899163246155
F0.150565505027771
tp278
(F0.5970535278320312
F-0.37884968519210815
F-0.5970535278320312
F0.37884968519210815
tp279
tp280
a((F0.8410000205039978
F0.40187641978263855
F-0.43887048959732056
tp281
(F0.06282081454992294
F-0.7043107151985168
F-0.06282081454992294
F0.7043107151985168
tp282
tp283
a((F0.8410000205039978
F-0.5040407180786133
F0.41697824001312256
tp284
(F0.6530563235282898
F0.271140992641449
F-0.6530563235282898
F-0.271140992641449
tp285
tp286
a((F0.8410000205039978
F0.9656006097793579
F-0.19611619412899017
tp287
(F0.706458568572998
F0.030271269381046295
F-0.7064585089683533
F-0.030271263793110847
tp288
tp289
a((F0.8410000205039978
F-0.49834978580474854
F0.40300074219703674
tp290
(F-0.40975552797317505
F-0.5762815475463867
F0.40975552797317505
F0.5762815475463867
tp291
tp292
a((F0.8410000205039978
F-0.6308162212371826
F0.0537433959543705
tp293
(F-0.040029436349868774
F-0.7059728503227234
F0.040029436349868774
F0.7059728503227234
tp294
tp295
a((F0.8410000205039978
F0.9027858972549438
F0.27801769971847534
tp296
(F0.6870280504226685
F0.16730941832065582
F-0.6870280504226685
F-0.1673094481229782
tp297
tp298
a((F0.8410000205039978
F-0.5352913737297058
F0.1457536816596985
tp299
(F0.6136361360549927
F0.351355642080307
F-0.6136361360549927
F-0.351355642080307
tp300
tp301
a((F0.8410000205039978
F-0.3985963463783264
F0.49111050367355347
tp302
(F-0.4472236931324005
F-0.5477142930030823
F0.4472236931324005
F0.5477142930030823
tp303
tp304
a((F0.840999960899353
F0.5663532018661499
F0.4557088315486908
tp305
(F0.6587936282157898
F-0.25688689947128296
F-0.658793568611145
F0.2568869888782501
tp306
tp307
a((F0.8410000205039978
F0.23292332887649536
F0.571270763874054
tp308
(F0.6992173790931702
F-0.1053331196308136
F-0.6992173790931702
F0.1053331196308136
tp309
tp310
a((F0.840999960899353
F-0.5040099024772644
F-0.1799195110797882
tp311
(F0.06172560527920723
F-0.7044074535369873
F-0.06172562018036842
F0.7044075727462769
tp312
tp313
a((F0.8410000205039978
F-0.30437472462654114
F-0.14499564468860626
tp314
(F0.5731735229492188
F0.41409188508987427
F-0.5731735229492188
F-0.41409191489219666
tp315
tp316
a((F0.8410000205039978
F-0.608776867389679
F0.27537333965301514
tp317
(F-0.2309822142124176
F-0.6683167219161987
F0.2309822142124176
F0.6683167219161987
tp318
tp319
a((F0.8410000205039978
F-0.46629220247268677
F0.1443743109703064
tp320
(F-0.5901302695274353
F-0.38954612612724304
F0.5901303291320801
F0.38954615592956543
tp321
tp322
a((F0.8410000205039978
F-0.11952860653400421
F0.7417978644371033
tp323
(F0.6872571706771851
F0.16636574268341064
F-0.6872571706771851
F-0.16636574268341064
tp324
tp325
a((F0.8410000205039978
F-0.5181757211685181
F-0.31959399580955505
tp326
(F-0.33349448442459106
F-0.6235234141349792
F0.33349448442459106
F0.6235234141349792
tp327
tp328
a((F0.8410000205039978
F0.6697760820388794
F-0.29425621032714844
tp329
(F0.42140182852745056
F-0.5678208470344543
F-0.42140182852745056
F0.5678208470344543
tp330
tp331
a((F0.8410002589225769
F-0.864837646484375
F-0.11772684752941132
tp332
(F0.07402337342500687
F-0.7032215595245361
F-0.07402337342500687
F0.7032215595245361
tp333
tp334
a((F0.8410000205039978
F0.6425292491912842
F-0.3675045073032379
tp335
(F0.5766539573669434
F-0.4092312455177307
F-0.5766539573669434
F0.4092312455177307
tp336
tp337
a((F0.8410001397132874
F0.4282092750072479
F-0.6204333305358887
tp338
(F0.5254788398742676
F-0.47315123677253723
F-0.5254788994789124
F0.47315114736557007
tp339
tp340
a((F0.8410001993179321
F0.5414242744445801
F0.04549890756607056
tp341
(F0.29848310351371765
F-0.6410208940505981
F-0.2984831631183624
F0.6410208940505981
tp342
tp343
a((F0.8410000205039978
F0.5298589468002319
F0.46604323387145996
tp344
(F-0.6710559725761414
F0.22289873659610748
F0.6710559725761414
F-0.22289875149726868
tp345
tp346
a((F0.8410000801086426
F-0.034687116742134094
F0.39342501759529114
tp347
(F-0.6554768681526184
F0.2652355432510376
F0.6554770469665527
F-0.2652357220649719
tp348
tp349
a((F0.8410000205039978
F0.5325396656990051
F-0.5741792321205139
tp350
(F0.5807587504386902
F-0.4033847153186798
F-0.5807587504386902
F0.4033847153186798
tp351
tp352
a((F0.8410000205039978
F-0.3950954079627991
F-0.4633583128452301
tp353
(F-0.2628486454486847
F-0.6564378142356873
F0.2628486454486847
F0.6564378142356873
tp354
tp355
a((F0.8410001993179321
F0.3693138360977173
F-0.5452754497528076
tp356
(F0.2705860435962677
F-0.6532865762710571
F-0.2705860435962677
F0.653286337852478
tp357
tp358
a((F0.8410001397132874
F-0.6266143321990967
F-0.4207400679588318
tp359
(F0.14265574514865875
F-0.6925672292709351
F-0.14265576004981995
F0.6925671696662903
tp360
tp361
a((F0.8410002589225769
F-0.4905509948730469
F0.688091516494751
tp362
(F-0.3230443298816681
F-0.6290010809898376
F0.3230443596839905
F0.6290010809898376
tp363
tp364
a((F0.8410000205039978
F0.41518014669418335
F0.5329566597938538
tp365
(F0.6782199740409851
F0.20004431903362274
F-0.6782198548316956
F-0.20004427433013916
tp366
tp367
a((F0.8410000205039978
F0.5230168104171753
F-0.4113534092903137
tp368
(F0.19245658814907074
F-0.6804119944572449
F-0.19245660305023193
F0.6804119944572449
tp369
tp370
a((F0.8409999012947083
F0.5222702622413635
F0.4726276993751526
tp371
(F0.6545384526252747
F-0.2675434947013855
F-0.6545382738113403
F0.26754358410835266
tp372
tp373
a((F0.840999960899353
F0.401811420917511
F0.6043725609779358
tp374
(F0.6901029348373413
F0.15413641929626465
F-0.6901028156280518
F-0.15413643419742584
tp375
tp376
a((F0.840999960899353
F0.6627829670906067
F0.10603848099708557
tp377
(F0.49846652150154114
F-0.501528799533844
F-0.49846652150154114
F0.5015286803245544
tp378
tp379
a((F0.8410000205039978
F0.14571386575698853
F0.744705080986023
tp380
(F0.5914900898933411
F0.38747838139533997
F-0.5914900898933411
F-0.38747838139533997
tp381
tp382
a((F0.8410000205039978
F-0.0362202525138855
F-0.8169053792953491
tp383
(F0.4510510563850403
F-0.5445667505264282
F-0.4510510563850403
F0.5445667505264282
tp384
tp385
a((F0.8410000205039978
F0.5474286079406738
F0.6906541585922241
tp386
(F-0.6385258436203003
F-0.3037841320037842
F0.6385258436203003
F0.3037841320037842
tp387
tp388
a((F0.8410000205039978
F0.19001734256744385
F-0.6754366755485535
tp389
(F0.5784973502159119
F-0.4066213071346283
F-0.5784973502159119
F0.4066213071346283
tp390
tp391
a((F0.8410000801086426
F-0.06036962568759918
F-0.5607266426086426
tp392
(F0.10842370241880417
F-0.6987448334693909
F-0.10842371731996536
F0.6987447142601013
tp393
tp394
a((F0.8410000205039978
F-0.7294831275939941
F0.2758699655532837
tp395
(F-0.2686168849468231
F-0.6540986895561218
F0.26861682534217834
F0.654098629951477
tp396
tp397
a((F0.8410000205039978
F-0.708467423915863
F-0.09123121201992035
tp398
(F0.05133112892508507
F-0.7052411437034607
F-0.05133112147450447
F0.7052411437034607
tp399
tp400
a((F0.8410000205039978
F-0.44484370946884155
F0.5001550912857056
tp401
(F0.6711327433586121
F0.22266769409179688
F-0.6711327433586121
F-0.22266769409179688
tp402
tp403
a((F0.8410002589225769
F-0.07593084871768951
F0.7466542720794678
tp404
(F-0.6716446876525879
F-0.22111867368221283
F0.6716446876525879
F0.2211187779903412
tp405
tp406
a((F0.8410000801086426
F0.4596538245677948
F0.7463819980621338
tp407
(F-0.6908366084098816
F-0.15081368386745453
F0.6908366084098816
F0.1508137285709381
tp408
tp409
a((F0.8410001397132874
F0.13766449689865112
F-0.7058840394020081
tp410
(F0.4382520616054535
F-0.5549191832542419
F-0.43825194239616394
F0.5549190640449524
tp411
tp412
a((F0.8410000205039978
F0.036279916763305664
F-0.42980778217315674
tp413
(F-0.04046013578772545
F-0.7059482336044312
F0.04046015441417694
F0.7059482336044312
tp414
tp415
a((F0.8409998416900635
F0.10585875809192657
F0.4670830965042114
tp416
(F0.6605956554412842
F0.25221729278564453
F-0.6605955958366394
F-0.25221729278564453
tp417
tp418
a((F0.8409999012947083
F0.3124530017375946
F0.873740553855896
tp419
(F0.6412017345428467
F0.29809457063674927
F-0.6412016749382019
F-0.2980945110321045
tp420
tp421
a((F0.8410000205039978
F0.3525111675262451
F0.5681309103965759
tp422
(F0.668634831905365
F0.2300598919391632
F-0.668634831905365
F-0.2300598919391632
tp423
tp424
a((F0.840999960899353
F-0.7725883722305298
F0.028271973133087158
tp425
(F-0.1186046376824379
F-0.697088897228241
F0.11860454082489014
F0.6970889568328857
tp426
tp427
a((F0.840999960899353
F0.3507571518421173
F-0.6811233758926392
tp428
(F-0.5761258602142334
F0.40997451543807983
F0.5761258602142334
F-0.40997451543807983
tp429
tp430
a((F0.8410000205039978
F0.32765209674835205
F-0.4587967097759247
tp431
(F0.4295000731945038
F-0.5617203116416931
F-0.4295000731945038
F0.5617203116416931
tp432
tp433
a((F0.8410000205039978
F-0.6431271433830261
F0.18264779448509216
tp434
(F0.5918845534324646
F0.38687559962272644
F-0.5918845534324646
F-0.38687559962272644
tp435
tp436
a((F0.8410000205039978
F-0.5701392889022827
F-0.1373056173324585
tp437
(F-0.1647469848394394
F-0.6876469850540161
F0.1647469848394394
F0.6876470446586609
tp438
tp439
a((F0.8410000205039978
F0.26393434405326843
F0.6404205560684204
tp440
(F-0.7043451070785522
F-0.06243408843874931
F0.7043451070785522
F0.062434013932943344
tp441
tp442
a((F0.8410000205039978
F0.7392216324806213
F0.1375856101512909
tp443
(F0.6225363612174988
F-0.33533328771591187
F-0.6225364208221436
F0.33533328771591187
tp444
tp445
a((F0.8410000205039978
F-0.4926595687866211
F0.771537184715271
tp446
(F-0.42562010884284973
F-0.5646658539772034
F0.42562010884284973
F0.5646658539772034
tp447
tp448
a((F0.8410000205039978
F-0.5647886991500854
F-0.2930298447608948
tp449
(F-0.15970447659492493
F-0.6888355612754822
F0.15970449149608612
F0.6888355612754822
tp450
tp451
a((F0.8410000801086426
F-0.5756991505622864
F0.4208049774169922
tp452
(F-0.4229378402233124
F-0.5666777491569519
F0.42293787002563477
F0.5666776299476624
tp453
tp454
a((F0.8410000205039978
F0.8213236331939697
F0.3608322739601135
tp455
(F0.7069699168205261
F0.013912069611251354
F-0.7069699168205261
F-0.01391209103167057
tp456
tp457
a((F0.8409997820854187
F0.151689350605011
F0.34070897102355957
tp458
(F0.7031239867210388
F-0.07494562864303589
F-0.7031236886978149
F0.0749456137418747
tp459
tp460
a((F0.8409998416900635
F0.44294750690460205
F0.3866432309150696
tp461
(F0.5187950134277344
F-0.4804705083370209
F-0.5187948346138
F0.4804704487323761
tp462
tp463
a((F0.8410000205039978
F-0.6398153305053711
F-0.01752874255180359
tp464
(F0.588947057723999
F0.39133310317993164
F-0.5889468789100647
F-0.3913329839706421
tp465
tp466
a((F0.8410000205039978
F0.5922541618347168
F-0.038690827786922455
tp467
(F0.34578657150268555
F-0.6167914271354675
F-0.34578657150268555
F0.6167914271354675
tp468
tp469
a((F0.8410000801086426
F0.26802608370780945
F-0.5821049809455872
tp470
(F0.4707176685333252
F-0.5276597738265991
F-0.47071748971939087
F0.5276597738265991
tp471
tp472
a((F0.8410000205039978
F-0.24375006556510925
F-0.5041114687919617
tp473
(F0.008404453285038471
F-0.7070568203926086
F-0.008404453285038471
F0.7070568203926086
tp474
tp475
a((F0.8410000205039978
F-0.013597607612609863
F-0.349399596452713
tp476
(F0.0739651769399643
F-0.7032276391983032
F-0.0739651769399643
F0.7032276391983032
tp477
tp478
a((F0.8410000205039978
F0.46002405881881714
F0.28685203194618225
tp479
(F0.6938420534133911
F0.13632002472877502
F-0.6938420534133911
F-0.13631999492645264
tp480
tp481
a((F0.840999960899353
F-0.2582765817642212
F0.5676894783973694
tp482
(F0.7070299386978149
F0.01042823027819395
F-0.7070298790931702
F-0.010428238660097122
tp483
tp484
a((F0.8410000205039978
F0.6582273840904236
F-0.7133578062057495
tp485
(F0.7006201148033142
F-0.09555850923061371
F-0.7006201148033142
F0.09555848687887192
tp486
tp487
a((F0.8410000801086426
F-0.766207218170166
F0.21834489703178406
tp488
(F-0.47197505831718445
F-0.5265352725982666
F0.47197532653808594
F0.5265354514122009
tp489
tp490
a((F0.8410000205039978
F0.3002241253852844
F0.4792390465736389
tp491
(F0.6815037727355957
F-0.1885540932416916
F-0.6815037727355957
F0.18855410814285278
tp492
tp493
a((F0.8410001397132874
F0.7726691961288452
F-0.2010127305984497
tp494
(F0.6975536942481995
F-0.11583972722291946
F-0.6975536346435547
F0.11583968251943588
tp495
tp496
a((F0.8410000205039978
F-0.6559387445449829
F0.6666954755783081
tp497
(F-0.0399104543030262
F-0.705979585647583
F0.0399104543030262
F0.705979585647583
tp498
tp499
a((F0.8410000801086426
F-0.5181442499160767
F0.1685921549797058
tp500
(F-0.6652511954307556
F-0.23966801166534424
F0.6652512550354004
F0.23966804146766663
tp501
tp502
a((F0.840999960899353
F0.08189612627029419
F0.6089503765106201
tp503
(F0.6628804206848145
F-0.24614939093589783
F-0.6628804206848145
F0.24614931643009186
tp504
tp505
a((F0.840999960899353
F0.6273138523101807
F0.1859775185585022
tp506
(F0.4759982228279114
F-0.5229012370109558
F-0.4759981632232666
F0.5229012966156006
tp507
tp508
a((F0.8410000205039978
F0.29264068603515625
F-0.5771068334579468
tp509
(F0.3940315246582031
F-0.5871449708938599
F-0.39403149485588074
F0.5871449708938599
tp510
tp511
a((F0.8410000205039978
F0.5162931680679321
F-0.6742438077926636
tp512
(F0.4701445400714874
F-0.5281705260276794
F-0.4701445698738098
F0.5281705260276794
tp513
tp514
a((F0.8410000205039978
F0.4019775390625
F-0.25968027114868164
tp515
(F0.18135708570480347
F-0.6834542155265808
F-0.18135708570480347
F0.6834542155265808
tp516
tp517
a((F0.840999960899353
F0.3066844344139099
F0.8360884189605713
tp518
(F0.6730380058288574
F0.21684081852436066
F-0.6730379462242126
F-0.21684078872203827
tp519
tp520
a((F0.8410000205039978
F-0.5604068636894226
F0.2666114568710327
tp521
(F0.6059249043464661
F0.36449289321899414
F-0.6059249043464661
F-0.36449289321899414
tp522
tp523
a((F0.8410000801086426
F-0.7375187873840332
F0.13855382800102234
tp524
(F-0.3392493426799774
F-0.6204110383987427
F0.3392494022846222
F0.6204110383987427
tp525
tp526
a((F0.8410000205039978
F-0.6665335893630981
F-0.4117705225944519
tp527
(F-0.12058869004249573
F-0.6967484354972839
F0.12058869004249573
F0.6967484354972839
tp528
tp529
a((F0.8410000205039978
F-0.18884824216365814
F0.7498787641525269
tp530
(F0.5522023439407349
F0.4416702687740326
F-0.5522023439407349
F-0.4416702687740326
tp531
tp532
a((F0.8410000205039978
F-0.6854841113090515
F-0.45523717999458313
tp533
(F0.13932020962238312
F-0.6932458877563477
F-0.13932017982006073
F0.6932458877563477
tp534
tp535
a((F0.8410000801086426
F-0.47567498683929443
F0.20857936143875122
tp536
(F-0.685079038143158
F-0.17511893808841705
F0.6850792169570923
F0.17511892318725586
tp537
tp538
a((F0.8410000205039978
F-0.7892856597900391
F0.021423399448394775
tp539
(F-0.2666313350200653
F-0.6549104452133179
F0.2666313350200653
F0.6549104452133179
tp540
tp541
a((F0.8410002589225769
F-0.2443116009235382
F-0.35120314359664917
tp542
(F0.024417266249656677
F-0.7066853046417236
F-0.024417350068688393
F0.7066850066184998
tp543
tp544
a((F0.8410000205039978
F0.5999289155006409
F-0.48554861545562744
tp545
(F0.6112220883369446
F-0.35553833842277527
F-0.6112220883369446
F0.35553833842277527
tp546
tp547
a((F0.8410000205039978
F0.7152577638626099
F0.19080018997192383
tp548
(F0.6985567212104797
F-0.10962922126054764
F-0.6985567212104797
F0.10962922126054764
tp549
tp550
a((F0.8410001397132874
F-0.09794841706752777
F0.7265326976776123
tp551
(F0.6370970010757446
F0.3067692816257477
F-0.6370970010757446
F-0.30676934123039246
tp552
tp553
a((F0.840999960899353
F0.9155899286270142
F0.29193568229675293
tp554
(F0.6277122497558594
F0.32554182410240173
F-0.6277121901512146
F-0.3255416452884674
tp555
tp556
a((F0.8410001397132874
F-0.26891064643859863
F-0.6692079901695251
tp557
(F0.42519789934158325
F-0.5649839043617249
F-0.42519789934158325
F0.5649836659431458
tp558
tp559
a((F0.8410000205039978
F-0.33214420080184937
F0.6810383200645447
tp560
(F-0.49669259786605835
F-0.5032857656478882
F0.49669259786605835
F0.5032857656478882
tp561
tp562
a((F0.8410000801086426
F-0.542402446269989
F-0.02520550787448883
tp563
(F-0.1639721840620041
F-0.687832236289978
F0.1639721691608429
F0.6878321766853333
tp564
tp565
a((F0.8410000205039978
F-0.07611322402954102
F-0.8867233991622925
tp566
(F0.48712894320487976
F-0.5125479698181152
F-0.48712900280952454
F0.5125479698181152
tp567
tp568
a((F0.8410000205039978
F0.8423917293548584
F0.4762016832828522
tp569
(F0.694750189781189
F0.13161392509937286
F-0.694750189781189
F-0.13161392509937286
tp570
tp571
a((F0.8410000205039978
F-0.19374722242355347
F-0.5199649333953857
tp572
(F-0.2463115155696869
F-0.6628202199935913
F0.2463115155696869
F0.6628202199935913
tp573
tp574
a((F0.8410000801086426
F-0.6307711601257324
F0.6082935929298401
tp575
(F-0.37578558921813965
F-0.598986804485321
F0.3757856488227844
F0.5989867448806763
tp576
tp577
a((F0.8410000801086426
F-0.4147489070892334
F0.019207805395126343
tp578
(F-0.6153518557548523
F-0.34834176301956177
F0.6153519749641418
F0.34834176301956177
tp579
tp580
a((F0.840999960899353
F0.09688043594360352
F0.7440342307090759
tp581
(F0.7064639925956726
F0.030144577845931053
F-0.7064639329910278
F-0.0301445834338665
tp582
tp583
a((F0.8409999012947083
F0.9390772581100464
F0.20292474329471588
tp584
(F0.7039639353752136
F0.06659556925296783
F-0.7039636373519897
F-0.06659550964832306
tp585
tp586
a((F0.8410000205039978
F-0.4711468517780304
F0.5413229465484619
tp587
(F-0.6554386615753174
F-0.26533034443855286
F0.6554386615753174
F0.26533034443855286
tp588
tp589
a((F0.8410000205039978
F-0.4092259705066681
F-0.47350752353668213
tp590
(F-0.42648687958717346
F-0.5640115141868591
F0.4264868497848511
F0.5640115141868591
tp591
tp592
a((F0.8410001397132874
F0.5214778184890747
F-0.45258191227912903
tp593
(F0.4028877317905426
F-0.5811036825180054
F-0.4028876721858978
F0.5811036825180054
tp594
tp595
a((F0.8410000205039978
F0.46130332350730896
F0.5496481657028198
tp596
(F-0.7016599178314209
F0.08759772032499313
F0.7016599774360657
F-0.08759772032499313
tp597
tp598
a((F0.8410000205039978
F-0.8458764553070068
F-0.35176631808280945
tp599
(F0.22984883189201355
F-0.6687073707580566
F-0.22984883189201355
F0.6687073707580566
tp600
tp601
a((F0.8410000205039978
F0.49097031354904175
F0.5012313723564148
tp602
(F0.6451775431632996
F-0.2893889546394348
F-0.6451775431632996
F0.2893889546394348
tp603
tp604
a((F0.8410000205039978
F0.18403346836566925
F0.5758246779441833
tp605
(F0.6116742491722107
F-0.35475996136665344
F-0.6116742491722107
F0.35475999116897583
tp606
tp607
a((F0.8410000205039978
F0.6779152750968933
F-0.03448626399040222
tp608
(F0.5788589119911194
F-0.4061063230037689
F-0.5788589119911194
F0.4061063230037689
tp609
tp610
a((F0.8409999012947083
F0.5388633012771606
F0.4911130368709564
tp611
(F0.6923325061798096
F-0.14379091560840607
F-0.69233238697052
F0.14379096031188965
tp612
tp613
a((F0.840999960899353
F0.32286110520362854
F0.4042890667915344
tp614
(F0.5245540738105774
F-0.4741762578487396
F-0.5245540142059326
F0.47417622804641724
tp615
tp616
a((F0.8410000205039978
F-0.6244902610778809
F-0.12222771346569061
tp617
(F-0.3180326223373413
F-0.6315498948097229
F0.3180326223373413
F0.6315498948097229
tp618
tp619
a((F0.8410000205039978
F0.20555880665779114
F0.9128716588020325
tp620
(F0.5826144814491272
F0.40069982409477234
F-0.5826144814491272
F-0.40069982409477234
tp621
tp622
a((F0.8410000801086426
F-0.04180634021759033
F0.46960097551345825
tp623
(F-0.706375777721405
F-0.03214319422841072
F0.7063758373260498
F0.032143186777830124
tp624
tp625
a((F0.841000497341156
F-0.3436140716075897
F-0.5596501231193542
tp626
(F-0.026419859379529953
F-0.7066131234169006
F0.026419969275593758
F0.7066129446029663
tp627
tp628
a((F0.8410000801086426
F0.1293123960494995
F0.5882791876792908
tp629
(F-0.7015731930732727
F-0.08828939497470856
F0.7015732526779175
F0.08828938752412796
tp630
tp631
a((F0.8410000205039978
F0.756427526473999
F0.4345744848251343
tp632
(F0.6998244524002075
F-0.10122119635343552
F-0.6998244524002075
F0.10122119635343552
tp633
tp634
a((F0.8410000205039978
F-0.6000381112098694
F-0.23784643411636353
tp635
(F-0.0558352954685688
F-0.7048988342285156
F0.0558352991938591
F0.7048988342285156
tp636
tp637
a((F0.8409998416900635
F0.02807086706161499
F0.5580840706825256
tp638
(F0.666874349117279
F-0.23511414229869843
F-0.6668742299079895
F0.23511409759521484
tp639
tp640
a((F0.8410000205039978
F0.7906371355056763
F-0.07755458354949951
tp641
(F0.6242619752883911
F-0.3321100175380707
F-0.6242619752883911
F0.3321100175380707
tp642
tp643
a((F0.8410000205039978
F0.23774944245815277
F0.43973273038864136
tp644
(F0.6809783577919006
F0.190442755818367
F-0.6809783577919006
F-0.190442755818367
tp645
tp646
a((F0.8410000205039978
F0.10093800723552704
F-0.6084104776382446
tp647
(F0.163047194480896
F-0.6880519986152649
F-0.1630471795797348
F0.6880520582199097
tp648
tp649
a((F0.8410000205039978
F-0.22422613203525543
F-0.4809138774871826
tp650
(F-0.28775936365127563
F-0.6459060311317444
F0.28775936365127563
F0.6459060311317444
tp651
tp652
a((F0.8410000205039978
F-0.6437891721725464
F0.2276444137096405
tp653
(F-0.4810977876186371
F-0.518213152885437
F0.4810977876186371
F0.518213152885437
tp654
tp655
a((F0.8410000205039978
F-0.5767759084701538
F0.654498279094696
tp656
(F0.517254114151001
F0.48212870955467224
F-0.517254114151001
F-0.48212870955467224
tp657
tp658
a((F0.8410000205039978
F0.10020627081394196
F0.6047847867012024
tp659
(F0.654165506362915
F-0.2684537172317505
F-0.654165506362915
F0.2684537172317505
tp660
tp661
a((F0.8410000205039978
F0.5330502390861511
F0.19502376019954681
tp662
(F0.42354047298431396
F-0.566227376461029
F-0.42354050278663635
F0.5662274360656738
tp663
tp664
a((F0.8410000205039978
F0.5145562887191772
F0.7366162538528442
tp665
(F0.6165863275527954
F0.34615203738212585
F-0.6165863275527954
F-0.34615209698677063
tp666
tp667
a((F0.8410000205039978
F-0.10200685262680054
F0.9032039046287537
tp668
(F0.6024082899093628
F0.37027600407600403
F-0.6024082899093628
F-0.37027600407600403
tp669
tp670
a((F0.8410000205039978
F-0.370242178440094
F-0.7885647416114807
tp671
(F0.3714204728603363
F-0.6017032861709595
F-0.3714204728603363
F0.6017032861709595
tp672
tp673
a((F0.8410000205039978
F-0.15241611003875732
F-0.8136892318725586
tp674
(F0.49206387996673584
F-0.5078120827674866
F-0.49206387996673584
F0.5078120827674866
tp675
tp676
a((F0.8410000205039978
F0.7428552508354187
F0.4825344681739807
tp677
(F0.7049738168716431
F0.054881129413843155
F-0.7049738168716431
F-0.05488111823797226
tp678
tp679
a((F0.8410000205039978
F-0.6964117884635925
F0.706239640712738
tp680
(F-0.16035017371177673
F-0.6886855959892273
F0.16035018861293793
F0.6886855959892273
tp681
tp682
a((F0.8410000205039978
F0.5435565710067749
F-0.008292913436889648
tp683
(F0.6970188021659851
F-0.1190161183476448
F-0.6970188021659851
F0.1190161183476448
tp684
tp685
a((F0.8410000801086426
F-0.4019779562950134
F-0.45700758695602417
tp686
(F-0.44473129510879517
F-0.5497399568557739
F0.44473129510879517
F0.5497398972511292
tp687
tp688
a((F0.8409997820854187
F-0.5685192346572876
F0.3660726547241211
tp689
(F0.5432503819465637
F0.4526359438896179
F-0.5432500839233398
F-0.4526357054710388
tp690
tp691
a((F0.840999960899353
F0.4399718940258026
F0.37149906158447266
tp692
(F0.7071067690849304
F1.7803508853830863e-06
F-0.7071067094802856
F-1.7754358623278677e-06
tp693
tp694
a((F0.8410000205039978
F-0.27466878294944763
F0.3869929611682892
tp695
(F-0.49755221605300903
F-0.5024359226226807
F0.49755221605300903
F0.5024359226226807
tp696
tp697
a((F0.8410000205039978
F-0.5916277766227722
F0.24736395478248596
tp698
(F-0.2551787495613098
F-0.6594572067260742
F0.2551787495613098
F0.6594572067260742
tp699
tp700
a((F0.8410000205039978
F0.681381106376648
F0.19939401745796204
tp701
(F0.7016248106956482
F0.08787832409143448
F-0.7016248106956482
F-0.08787832409143448
tp702
tp703
a((F0.8410000205039978
F0.48224949836730957
F0.1787039190530777
tp704
(F0.7015559077262878
F-0.08842670917510986
F-0.7015559077262878
F0.08842670917510986
tp705
tp706
a((F0.8410002589225769
F0.36009204387664795
F0.509760856628418
tp707
(F-0.6508628129959106
F-0.27636468410491943
F0.6508629322052002
F0.27636486291885376
tp708
tp709
a((F0.8410000801086426
F-0.5408384799957275
F0.06509117037057877
tp710
(F-0.6781448721885681
F-0.20029842853546143
F0.6781449913978577
F0.20029833912849426
tp711
tp712
a((F0.8409998416900635
F0.41285499930381775
F-0.5824721455574036
tp713
(F0.30773136019706726
F-0.6366329193115234
F-0.3077313005924225
F0.6366329789161682
tp714
tp715
a((F0.8410000205039978
F-0.25550079345703125
F-0.2996104955673218
tp716
(F-0.4161126911640167
F-0.5717080235481262
F0.4161126911640167
F0.571708083152771
tp717
tp718
a((F0.8410000205039978
F0.5606316328048706
F0.29661157727241516
tp719
(F0.7040841579437256
F-0.06531047821044922
F-0.7040841579437256
F0.06531047821044922
tp720
tp721
a((F0.8410001397132874
F-0.0690261721611023
F-0.8222261667251587
tp722
(F0.36255696415901184
F-0.6070852279663086
F-0.36255693435668945
F0.6070851683616638
tp723
tp724
a((F0.8409998416900635
F-0.3558220863342285
F-0.6594030857086182
tp725
(F-0.11803443729877472
F-0.6971856951713562
F0.11803445219993591
F0.6971856951713562
tp726
tp727
a((F0.8410000205039978
F-0.5523555874824524
F-0.5076617002487183
tp728
(F-0.020505890250205994
F-0.706809401512146
F0.020505869761109352
F0.706809401512146
tp729
tp730
a((F0.8410000205039978
F-0.4055672883987427
F0.5189480781555176
tp731
(F0.6961824297904968
F0.12381455302238464
F-0.696182370185852
F-0.12381456047296524
tp732
tp733
a((F0.840999960899353
F0.34803035855293274
F0.60160893201828
tp734
(F0.7069439888000488
F0.01517831813544035
F-0.7069438099861145
F-0.015178310684859753
tp735
tp736
a((F0.8410000205039978
F-0.43502020835876465
F-0.7911083698272705
tp737
(F0.3076910078525543
F-0.636652410030365
F-0.3076910078525543
F0.636652410030365
tp738
tp739
a((F0.840999960899353
F-0.4574607014656067
F0.3475870192050934
tp740
(F0.5647492408752441
F0.4255095422267914
F-0.5647490620613098
F-0.425509512424469
tp741
tp742
a((F0.8410000205039978
F0.3557261526584625
F0.8719871640205383
tp743
(F-0.6294164657592773
F-0.322234183549881
F0.6294164657592773
F0.3222341537475586
tp744
tp745
a((F0.8409998416900635
F0.49115344882011414
F-0.5921497344970703
tp746
(F-0.6072234511375427
F0.36232510209083557
F0.6072235703468323
F-0.3623252511024475
tp747
tp748
a((F0.8409999012947083
F-0.6035135984420776
F-0.3899707794189453
tp749
(F0.0638170912861824
F-0.7042210698127747
F-0.06381707638502121
F0.7042211294174194
tp750
tp751
a((F0.8409998416900635
F-0.02981165051460266
F0.6446343064308167
tp752
(F0.5038588047027588
F0.4961113929748535
F-0.5038586854934692
F-0.49611130356788635
tp753
tp754
a((F0.8410000205039978
F0.23352476954460144
F-0.6437892913818359
tp755
(F0.492534339427948
F-0.5073556900024414
F-0.492534339427948
F0.5073556900024414
tp756
tp757
a((F0.8410000205039978
F0.016937747597694397
F0.6255792379379272
tp758
(F0.6817145347595215
F-0.18779045343399048
F-0.6817145347595215
F0.18779045343399048
tp759
tp760
a((F0.840999960899353
F0.7249127626419067
F-0.5260848999023438
tp761
(F-0.6545549631118774
F0.2675028443336487
F0.654555082321167
F-0.2675027549266815
tp762
tp763
a((F0.840999960899353
F-0.32916706800460815
F0.4997064471244812
tp764
(F0.6543571949005127
F0.26798635721206665
F-0.6543571352958679
F-0.26798635721206665
tp765
tp766
a((F0.8410000205039978
F-0.4829740524291992
F0.2416602075099945
tp767
(F0.6569871306419373
F0.2614727020263672
F-0.6569871306419373
F-0.2614727020263672
tp768
tp769
a((F0.8410000205039978
F-0.34898853302001953
F-0.4560328722000122
tp770
(F-0.21205656230449677
F-0.674560546875
F0.21205656230449677
F0.674560546875
tp771
tp772
a((F0.8410002589225769
F0.7389175891876221
F0.1640651524066925
tp773
(F0.6840073466300964
F-0.17925941944122314
F-0.6840073466300964
F0.17925941944122314
tp774
tp775
a((F0.8409998416900635
F0.5220061540603638
F-0.4142507314682007
tp776
(F0.4839300513267517
F-0.5155692100524902
F-0.4839300215244293
F0.515569269657135
tp777
tp778
a((F0.8410000205039978
F0.5848124027252197
F0.06026871129870415
tp779
(F0.49100780487060547
F-0.5088332891464233
F-0.49100780487060547
F0.5088332891464233
tp780
tp781
a((F0.8410000205039978
F0.30059367418289185
F0.5889908075332642
tp782
(F0.6930880546569824
F0.1401035338640213
F-0.6930881142616272
F-0.1401035487651825
tp783
tp784
a((F0.8409998416900635
F-0.8863532543182373
F0.1566128432750702
tp785
(F0.018754957243800163
F-0.7068580389022827
F-0.01875496655702591
F0.7068579196929932
tp786
tp787
a((F0.8410000801086426
F-0.5461932420730591
F-0.5316613912582397
tp788
(F0.03839316591620445
F-0.7060636878013611
F-0.03839316591620445
F0.7060636878013611
tp789
tp790
a((F0.8410000205039978
F-0.35783112049102783
F0.589411199092865
tp791
(F0.6531805396080017
F0.2708415985107422
F-0.6531805396080017
F-0.2708415985107422
tp792
tp793
a((F0.8409999012947083
F0.7936732769012451
F0.24036844074726105
tp794
(F0.6712602972984314
F-0.22228290140628815
F-0.6712602972984314
F0.22228290140628815
tp795
tp796
a((F0.8410000205039978
F0.10513106733560562
F0.8835725784301758
tp797
(F0.6327283382415771
F0.3156816065311432
F-0.6327283382415771
F-0.3156816065311432
tp798
tp799
a((F0.8410000801086426
F0.3991048038005829
F-0.3983384966850281
tp800
(F0.2934744954109192
F-0.6433294415473938
F-0.2934744656085968
F0.6433294415473938
tp801
tp802
a((F0.8410001397132874
F0.42817598581314087
F0.3888450562953949
tp803
(F-0.5926018357276917
F0.38577550649642944
F0.5926021337509155
F-0.3857756555080414
tp804
tp805
a((F0.8409999012947083
F0.46950849890708923
F-0.7609978914260864
tp806
(F0.6003720164299011
F-0.37356850504875183
F-0.6003720164299011
F0.37356844544410706
tp807
tp808
a((F0.8410000205039978
F-0.5349075794219971
F0.7347140312194824
tp809
(F-0.4776197373867035
F-0.5214205980300903
F0.4776197373867035
F0.5214205384254456
tp810
tp811
a((F0.8410000205039978
F-0.12971922755241394
F0.5645796060562134
tp812
(F0.6829527020454407
F0.18323659896850586
F-0.6829527020454407
F-0.18323659896850586
tp813
tp814
a((F0.8410000205039978
F0.5627301335334778
F-0.7781304121017456
tp815
(F0.7011006474494934
F-0.09196652472019196
F-0.7011007070541382
F0.09196654707193375
tp816
tp817
a((F0.8410000205039978
F-0.17681948840618134
F-0.42349687218666077
tp818
(F-0.1637745052576065
F-0.6878792643547058
F0.1637745052576065
F0.6878792643547058
tp819
tp820
a((F0.8410000205039978
F0.842801570892334
F0.11020469665527344
tp821
(F0.6617317199707031
F-0.24922096729278564
F-0.6617317199707031
F0.24922096729278564
tp822
tp823
a((F0.8410000205039978
F-0.3267236649990082
F0.5362364053726196
tp824
(F-0.46831560134887695
F-0.5297929048538208
F0.46831560134887695
F0.5297929048538208
tp825
tp826
a((F0.8410000205039978
F-0.10844218730926514
F-0.7032744884490967
tp827
(F0.10365770012140274
F-0.699467658996582
F-0.10365770012140274
F0.699467658996582
tp828
tp829
a((F0.8410001993179321
F-0.43883123993873596
F0.5717185735702515
tp830
(F-0.6076121926307678
F-0.3616730272769928
F0.6076123714447021
F0.3616730868816376
tp831
tp832
a((F0.8410000205039978
F-0.3024604618549347
F0.9309574365615845
tp833
(F-0.3342534005641937
F-0.6231169104576111
F0.3342534005641937
F0.6231169104576111
tp834
tp835
a((F0.8410001397132874
F0.5599083304405212
F0.4872083067893982
tp836
(F-0.6909371018409729
F0.1503523886203766
F0.6909372210502625
F-0.1503523588180542
tp837
tp838
a((F0.8410001397132874
F-0.3540152907371521
F-0.6340397596359253
tp839
(F0.1278921365737915
F-0.6954448819160461
F-0.1278921365737915
F0.6954448819160461
tp840
tp841
a((F0.8410000801086426
F0.09497489780187607
F-0.3777357339859009
tp842
(F-0.06109138950705528
F-0.7044628858566284
F0.061091482639312744
F0.7044627666473389
tp843
tp844
a((F0.8410000205039978
F0.4536244869232178
F-0.4127108156681061
tp845
(F0.585993230342865
F-0.395742267370224
F-0.585993230342865
F0.395742267370224
tp846
tp847
a((F0.840999960899353
F-0.7270859479904175
F0.40090879797935486
tp848
(F-0.10881341993808746
F-0.6986842751502991
F0.1088133305311203
F0.6986842751502991
tp849
tp850
a((F0.8409998416900635
F0.25298765301704407
F0.7152840495109558
tp851
(F0.6976370811462402
F0.1153373047709465
F-0.6976369023323059
F-0.11533715575933456
tp852
tp853
a((F0.8410000801086426
F-0.7450130581855774
F0.24572151899337769
tp854
(F-0.30229583382606506
F-0.63923180103302
F0.3022959232330322
F0.6392315626144409
tp855
tp856
a((F0.8410000205039978
F0.7660266757011414
F0.2113274335861206
tp857
(F0.7059831023216248
F-0.03984769806265831
F-0.7059831023216248
F0.03984769806265831
tp858
tp859
a((F0.8410000205039978
F-0.10785922408103943
F0.6762580871582031
tp860
(F0.5645237565040588
F0.4258085787296295
F-0.5645237565040588
F-0.4258085787296295
tp861
tp862
a((F0.8410001397132874
F0.4557558000087738
F0.32686418294906616
tp863
(F0.43822965025901794
F-0.5549368262290955
F-0.43822959065437317
F0.5549367070198059
tp864
tp865
a((F0.8410000205039978
F-0.513190507888794
F0.22453472018241882
tp866
(F-0.4492199718952179
F-0.5460782051086426
F0.4492200016975403
F0.5460781455039978
tp867
tp868
a((F0.8409999012947083
F-0.0022956132888793945
F0.6969356536865234
tp869
(F0.6801910996437073
F0.19323574006557465
F-0.6801910400390625
F-0.19323578476905823
tp870
tp871
a((F0.8410000205039978
F-0.6037706136703491
F0.394591361284256
tp872
(F0.6140925288200378
F0.3505573272705078
F-0.6140925288200378
F-0.3505573272705078
tp873
tp874
a((F0.8410000205039978
F0.2160063087940216
F-0.8332436680793762
tp875
(F0.5593674778938293
F-0.4325597584247589
F-0.5593674778938293
F0.4325597882270813
tp876
tp877
a((F0.8410000205039978
F-0.3551952838897705
F-0.2423962950706482
tp878
(F0.5701585412025452
F0.4182334542274475
F-0.5701585412025452
F-0.4182335436344147
tp879
tp880
a((F0.8409999012947083
F-0.37749892473220825
F0.3214107155799866
tp881
(F0.6965736746788025
F0.12159454822540283
F-0.6965735554695129
F-0.12159464508295059
tp882
tp883
a((F0.8410002589225769
F0.3382197618484497
F0.8180359601974487
tp884
(F-0.6060384511947632
F-0.36430370807647705
F0.6060386300086975
F0.364303857088089
tp885
tp886
a((F0.8410000205039978
F0.6899917721748352
F0.14415815472602844
tp887
(F0.5302358269691467
F-0.4678141176700592
F-0.530235767364502
F0.4678140878677368
tp888
tp889
a((F0.8410000205039978
F-0.4411656856536865
F-0.715903639793396
tp890
(F0.23641444742679596
F-0.6664143800735474
F-0.23641444742679596
F0.6664143800735474
tp891
tp892
a((F0.8410000205039978
F-0.09129425883293152
F-0.5973812341690063
tp893
(F-0.2149631828069687
F-0.6736399531364441
F0.2149631828069687
F0.6736399531364441
tp894
tp895
a((F0.8410000205039978
F0.5994742512702942
F0.01959805190563202
tp896
(F-0.6917065382003784
F0.14677201211452484
F0.6917065382003784
F-0.14677199721336365
tp897
tp898
a((F0.8410000205039978
F0.9423854351043701
F0.19760777056217194
tp899
(F0.7068449854850769
F0.019238822162151337
F-0.7068449854850769
F-0.019238822162151337
tp900
tp901
a((F0.8409998416900635
F0.6015088558197021
F0.44163429737091064
tp902
(F0.7070826292037964
F0.005856167059391737
F-0.7070824503898621
F-0.0058560618199408054
tp903
tp904
a((F0.8410003185272217
F0.056368425488471985
F-0.6222437024116516
tp905
(F0.20426855981349945
F-0.676959753036499
F-0.20426851511001587
F0.6769595742225647
tp906
tp907
a((F0.8410000205039978
F-0.15712031722068787
F0.687822699546814
tp908
(F-0.4458204507827759
F-0.5488572120666504
F0.44582051038742065
F0.5488572120666504
tp909
tp910
a((F0.8410000205039978
F0.3031606078147888
F0.1028342992067337
tp911
(F0.5328250527381897
F-0.46486276388168335
F-0.5328250527381897
F0.46486276388168335
tp912
tp913
a((F0.8410001397132874
F-0.24330779910087585
F0.8005689978599548
tp914
(F-0.4976254105567932
F-0.5023635029792786
F0.4976254403591156
F0.5023635029792786
tp915
tp916
a((F0.8410001397132874
F-0.32566678524017334
F-0.6489881873130798
tp917
(F0.33259016275405884
F-0.6240062117576599
F-0.33259013295173645
F0.6240062713623047
tp918
tp919
a((F0.8409998416900635
F0.5469685792922974
F-0.0842362493276596
tp920
(F0.4430146813392639
F-0.5511243939399719
F-0.44301462173461914
F0.5511243939399719
tp921
tp922
a((F0.840999960899353
F-0.6568729877471924
F-0.043392449617385864
tp923
(F-0.09800037741661072
F-0.7002828121185303
F0.09800033271312714
F0.7002826929092407
tp924
tp925
a((F0.8410000205039978
F-0.741019070148468
F-0.020817309617996216
tp926
(F-0.018226539716124535
F-0.7068718671798706
F0.018226539716124535
F0.7068718671798706
tp927
tp928
a((F0.8410000205039978
F0.886378288269043
F-0.2594556510448456
tp929
(F0.7071064114570618
F-0.0007543558604083955
F-0.707106351852417
F0.0007543565006926656
tp930
tp931
a((F0.8410000205039978
F0.5742139220237732
F-0.4153008460998535
tp932
(F0.6396719217300415
F-0.3013631999492645
F-0.6396719217300415
F0.3013632297515869
tp933
tp934
a((F0.8410000205039978
F0.9213444590568542
F0.1798723340034485
tp935
(F0.7041748762130737
F0.0643254742026329
F-0.7041748762130737
F-0.06432544440031052
tp936
tp937
a((F0.8410000801086426
F-0.25927892327308655
F0.5239900946617126
tp938
(F-0.39415326714515686
F-0.587063193321228
F0.3941533863544464
F0.5870631337165833
tp939
tp940
a((F0.8410000205039978
F-0.323451966047287
F0.46899133920669556
tp941
(F-0.3679656386375427
F-0.6038222908973694
F0.3679656386375427
F0.6038222908973694
tp942
tp943
a((F0.8409999012947083
F0.33584141731262207
F0.32090067863464355
tp944
(F-0.6757923364639282
F0.20809778571128845
F0.6757924556732178
F-0.20809787511825562
tp945
tp946
a((F0.8409998416900635
F0.2284630686044693
F0.9229926466941833
tp947
(F0.6007620096206665
F0.3729410767555237
F-0.6007618308067322
F-0.3729410171508789
tp948
tp949
a((F0.8410000205039978
F0.43511900305747986
F0.6048981547355652
tp950
(F0.7067976593971252
F0.020906571298837662
F-0.7067975997924805
F-0.020906547084450722
tp951
tp952
a((F0.8409998416900635
F-0.5327724814414978
F0.04616525396704674
tp953
(F-0.3336823880672455
F-0.6234229207038879
F0.33368220925331116
F0.6234228610992432
tp954
tp955
a((F0.8410000205039978
F-0.7657140493392944
F0.19247618317604065
tp956
(F-0.10314707458019257
F-0.6995431780815125
F0.10314709693193436
F0.6995431780815125
tp957
tp958
a((F0.8409997820854187
F0.2580336928367615
F-0.8575276136398315
tp959
(F0.44851383566856384
F-0.5466583967208862
F-0.44851380586624146
F0.5466583967208862
tp960
tp961
a((F0.8409999012947083
F0.10143859684467316
F0.39459675550460815
tp962
(F0.6667249798774719
F-0.23553751409053802
F-0.6667248010635376
F0.23553746938705444
tp963
tp964
a((F0.8410001397132874
F0.2282634675502777
F-0.778641939163208
tp965
(F0.5288482308387756
F-0.4693821370601654
F-0.5288481116294861
F0.46938207745552063
tp966
tp967
a((F0.8410000801086426
F0.743624746799469
F0.07949219644069672
tp968
(F-0.6744205951690674
F0.21250125765800476
F0.6744207143783569
F-0.21250125765800476
tp969
tp970
a((F0.8410000205039978
F0.4273834824562073
F-0.08517767488956451
tp971
(F0.6240027546882629
F-0.3325967788696289
F-0.6240025758743286
F0.33259686827659607
tp972
tp973
a((F0.8410000205039978
F-0.6557520031929016
F0.5954526662826538
tp974
(F-0.45236271619796753
F-0.5434776544570923
F0.45236271619796753
F0.5434776544570923
tp975
tp976
a((F0.8410000205039978
F-0.16531714797019958
F-0.5995292663574219
tp977
(F0.15479536354541779
F-0.6899554133415222
F-0.15479536354541779
F0.6899554133415222
tp978
tp979
a((F0.8410000205039978
F-0.32247042655944824
F0.32358771562576294
tp980
(F0.5056979060173035
F0.49423640966415405
F-0.5056979060173035
F-0.49423640966415405
tp981
tp982
a((F0.8410000205039978
F0.6122594475746155
F-0.330733060836792
tp983
(F0.5627812147140503
F-0.42810899019241333
F-0.5627811551094055
F0.4281090199947357
tp984
tp985
a((F0.8410000205039978
F0.18802225589752197
F0.9535751342773438
tp986
(F-0.4367402195930481
F-0.5561096668243408
F0.4367402493953705
F0.5561096668243408
tp987
tp988
a((F0.840999960899353
F-0.32487332820892334
F0.5897647142410278
tp989
(F0.7024118304252625
F0.08134916424751282
F-0.7024117708206177
F-0.08134917169809341
tp990
tp991
a((F0.8410000205039978
F0.0793474018573761
F-0.6341593861579895
tp992
(F0.5228922367095947
F-0.4760080575942993
F-0.5228922367095947
F0.4760080575942993
tp993
tp994
a((F0.8410000205039978
F0.20346568524837494
F0.6527217030525208
tp995
(F-0.6800242066383362
F0.1938222199678421
F0.6800242066383362
F-0.19382217526435852
tp996
tp997
a((F0.8410000205039978
F0.4347074329853058
F-0.7497155666351318
tp998
(F0.44579192996025085
F-0.5488802790641785
F-0.44579192996025085
F0.5488802790641785
tp999
tp1000
a((F0.8410000205039978
F0.29848170280456543
F0.594689130783081
tp1001
(F0.6927993297576904
F0.14152458310127258
F-0.6927992701530457
F-0.14152459800243378
tp1002
tp1003
a((F0.8410000205039978
F0.6134057641029358
F-0.26627418398857117
tp1004
(F0.6919679641723633
F-0.14553451538085938
F-0.6919679641723633
F0.14553451538085938
tp1005
tp1006
a((F0.8410000801086426
F0.9039078950881958
F-0.36037570238113403
tp1007
(F0.7059327363967896
F0.04073132574558258
F-0.7059325575828552
F-0.04073129594326019
tp1008
tp1009
a((F0.8410000205039978
F0.5190839171409607
F-0.1768854856491089
tp1010
(F0.5516999363899231
F-0.4422976076602936
F-0.5516999363899231
F0.4422976076602936
tp1011
tp1012
a((F0.8410000205039978
F-0.652946412563324
F0.2129678875207901
tp1013
(F-0.27898475527763367
F-0.6497442126274109
F0.2789847254753113
F0.6497442126274109
tp1014
tp1015
a((F0.840999960899353
F0.3764587640762329
F0.263972669839859
tp1016
(F0.35904252529144287
F-0.6091703176498413
F-0.3590424656867981
F0.6091703176498413
tp1017
tp1018
a((F0.8410000801086426
F0.9163416624069214
F0.22436022758483887
tp1019
(F0.7050182223320007
F-0.054308656603097916
F-0.7050180435180664
F0.05430861935019493
tp1020
tp1021
a((F0.840999960899353
F-0.5101320147514343
F0.11338523030281067
tp1022
(F0.6952854990959167
F0.12875652313232422
F-0.6952852010726929
F-0.1287565380334854
tp1023
tp1024
a((F0.8410000205039978
F0.5360038876533508
F-0.5204560160636902
tp1025
(F0.6685116291046143
F-0.23041726648807526
F-0.6685116291046143
F0.23041726648807526
tp1026
tp1027
a((F0.840999960899353
F-0.2710687220096588
F0.47979798913002014
tp1028
(F0.6236143112182617
F0.3333243131637573
F-0.6236143112182617
F-0.3333243727684021
tp1029
tp1030
a((F0.8410001397132874
F-0.13959315419197083
F-0.8270317912101746
tp1031
(F0.48830485343933105
F-0.5114279985427856
F-0.4883047640323639
F0.5114279389381409
tp1032
tp1033
a((F0.8410000205039978
F-0.10396156460046768
F0.6409939527511597
tp1034
(F0.6209103465080261
F0.33833470940589905
F-0.6209103465080261
F-0.33833473920822144
tp1035
tp1036
a((F0.8410000205039978
F0.5834647417068481
F0.024347543716430664
tp1037
(F-0.5831405520439148
F0.3999341130256653
F0.58314049243927
F-0.3999340534210205
tp1038
tp1039
a((F0.8410000205039978
F0.25372689962387085
F0.8874531388282776
tp1040
(F0.6544432044029236
F0.2677761912345886
F-0.6544432044029236
F-0.267776221036911
tp1041
tp1042
a((F0.8410000205039978
F-0.6364074945449829
F0.2258550077676773
tp1043
(F-0.46400508284568787
F-0.533572256565094
F0.46400508284568787
F0.533572256565094
tp1044
tp1045
a((F0.8410000205039978
F-0.18169274926185608
F0.7519797086715698
tp1046
(F0.6777147650718689
F0.20174916088581085
F-0.6777147650718689
F-0.20174911618232727
tp1047
tp1048
a((F0.840999960899353
F-0.4909793436527252
F0.5527784824371338
tp1049
(F-0.4877919554710388
F-0.5119170546531677
F0.48779189586639404
F0.5119170546531677
tp1050
tp1051
a((F0.8410001993179321
F-0.6183065176010132
F-0.6089857816696167
tp1052
(F0.30729392170906067
F-0.6368442177772522
F-0.3072938621044159
F0.6368440389633179
tp1053
tp1054
a((F0.840999960899353
F-0.7794711589813232
F0.3871833384037018
tp1055
(F-0.32605409622192383
F-0.6274462342262268
F0.32605406641960144
F0.6274461150169373
tp1056
tp1057
a((F0.8410000205039978
F-0.5552844405174255
F-0.5747933983802795
tp1058
(F0.17255499958992004
F-0.6857293844223022
F-0.17255499958992004
F0.6857293844223022
tp1059
tp1060
a((F0.8410000205039978
F0.26112985610961914
F0.6601161360740662
tp1061
(F0.6870905160903931
F0.1670525074005127
F-0.6870905160903931
F-0.1670525223016739
tp1062
tp1063
a((F0.8410000205039978
F-0.11159577965736389
F-0.6378086805343628
tp1064
(F0.08062915503978729
F-0.7024948000907898
F-0.08062915503978729
F0.7024948000907898
tp1065
tp1066
a((F0.8410000205039978
F0.27394434809684753
F0.4837905466556549
tp1067
(F0.6509295105934143
F-0.276207834482193
F-0.6509295105934143
F0.276207834482193
tp1068
tp1069
a((F0.8410000205039978
F-0.590453028678894
F0.7882243394851685
tp1070
(F-0.2153589278459549
F-0.6735135316848755
F0.2153589278459549
F0.6735135316848755
tp1071
tp1072
a((F0.8410000205039978
F-0.26887086033821106
F-0.6100929975509644
tp1073
(F0.1621875762939453
F-0.6882551312446594
F-0.1621875762939453
F0.6882551312446594
tp1074
tp1075
a((F0.8410000205039978
F0.7873613834381104
F0.29091545939445496
tp1076
(F0.6860226392745972
F0.17138546705245972
F-0.6860226392745972
F-0.17138546705245972
tp1077
tp1078
a((F0.8410000205039978
F-0.8588846921920776
F0.21883775293827057
tp1079
(F-0.24788141250610352
F-0.6622347831726074
F0.24788138270378113
F0.6622346639633179
tp1080
tp1081
a((F0.8410001397132874
F0.6451889276504517
F-0.49125924706459045
tp1082
(F0.6131225228309631
F-0.35225120186805725
F-0.6131224036216736
F0.3522511124610901
tp1083
tp1084
a((F0.8410000205039978
F0.6036611795425415
F0.3219988942146301
tp1085
(F0.6865085363388062
F-0.16942864656448364
F-0.6865085363388062
F0.16942866146564484
tp1086
tp1087
a((F0.8410000205039978
F0.5728475451469421
F0.41933417320251465
tp1088
(F0.692326545715332
F-0.14381901919841766
F-0.692326545715332
F0.14381904900074005
tp1089
tp1090
a((F0.8410001397132874
F-0.2769472002983093
F0.8017617464065552
tp1091
(F-0.5965959429740906
F-0.37956979870796204
F0.5965960025787354
F0.37956973910331726
tp1092
tp1093
a((F0.8410000205039978
F-0.6621646881103516
F-0.49720361828804016
tp1094
(F-0.10499408096075058
F-0.6992684006690979
F0.10499409586191177
F0.6992684006690979
tp1095
tp1096
a((F0.8410000205039978
F-0.4442000985145569
F-0.5795122385025024
tp1097
(F0.29802316427230835
F-0.6412348747253418
F-0.29802316427230835
F0.6412348747253418
tp1098
tp1099
a((F0.8409999012947083
F-0.2491855025291443
F-0.6741764545440674
tp1100
(F0.08146239072084427
F-0.7023985981941223
F-0.08146233856678009
F0.7023987770080566
tp1101
tp1102
a((F0.8410000205039978
F0.0686371698975563
F-0.36250200867652893
tp1103
(F0.1758507341146469
F-0.6848916411399841
F-0.1758507341146469
F0.6848916411399841
tp1104
tp1105
a((F0.8410000205039978
F0.33482426404953003
F-0.24536645412445068
tp1106
(F0.38247257471084595
F-0.5947391986846924
F-0.38247257471084595
F0.5947391986846924
tp1107
tp1108
a((F0.8410000205039978
F0.9004393815994263
F0.13540121912956238
tp1109
(F0.6964322924613953
F-0.12240125983953476
F-0.6964322924613953
F0.12240125238895416
tp1110
tp1111
a((F0.8410000205039978
F-0.6232643127441406
F0.20019349455833435
tp1112
(F0.5910916328430176
F0.38808584213256836
F-0.5910916328430176
F-0.38808584213256836
tp1113
tp1114
a((F0.8410000205039978
F-0.041349031031131744
F-0.5855239033699036
tp1115
(F0.3487391471862793
F-0.6151267886161804
F-0.3487391471862793
F0.6151267886161804
tp1116
tp1117
a((F0.8410000205039978
F-0.46670302748680115
F0.7457540035247803
tp1118
(F0.5273480415344238
F0.4710668623447418
F-0.5273480415344238
F-0.4710668623447418
tp1119
tp1120
a((F0.8410000205039978
F0.7873586416244507
F0.31806448101997375
tp1121
(F0.6999409198760986
F0.10041255503892899
F-0.6999409198760986
F-0.1004125326871872
tp1122
tp1123
a((F0.8410001993179321
F-0.7335231304168701
F0.5061293840408325
tp1124
(F-0.3871012330055237
F-0.591736912727356
F0.3871013820171356
F0.5917370319366455
tp1125
tp1126
a((F0.8410001397132874
F-0.47330743074417114
F0.38681501150131226
tp1127
(F-0.7018277049064636
F-0.08624301850795746
F0.7018278241157532
F0.08624302595853806
tp1128
tp1129
a((F0.8409999012947083
F0.8267860412597656
F0.15527763962745667
tp1130
(F0.6558797955513
F-0.2642382085323334
F-0.6558796167373657
F0.2642382085323334
tp1131
tp1132
a((F0.8409996032714844
F-0.2706224024295807
F0.9025441408157349
tp1133
(F-0.30141398310661316
F-0.6396479606628418
F0.30141395330429077
F0.6396480202674866
tp1134
tp1135
a((F0.8409999012947083
F-0.5749531984329224
F-0.4580204486846924
tp1136
(F-0.2869012653827667
F-0.6462875604629517
F0.2869012653827667
F0.6462875604629517
tp1137
tp1138
a((F0.8410000205039978
F-0.6986308097839355
F-0.376547634601593
tp1139
(F0.024807080626487732
F-0.7066714763641357
F-0.024807080626487732
F0.7066714763641357
tp1140
tp1141
a((F0.8410000801086426
F0.8891934156417847
F-0.4087637662887573
tp1142
(F-0.6879133582115173
F0.16363103687763214
F0.6879134774208069
F-0.16363096237182617
tp1143
tp1144
a((F0.8410003185272217
F0.04315602779388428
F-0.7663371562957764
tp1145
(F0.18262968957424164
F-0.6831153631210327
F-0.18262971937656403
F0.6831151247024536
tp1146
tp1147
a((F0.8410000205039978
F-0.36213475465774536
F0.5386900901794434
tp1148
(F-0.42019644379615784
F-0.568713366985321
F0.42019644379615784
F0.5687134265899658
tp1149
tp1150
a((F0.8410000205039978
F0.8217068314552307
F0.5509843826293945
tp1151
(F-0.6403093934059143
F-0.3000061810016632
F0.6403096318244934
F0.30000612139701843
tp1152
tp1153
a((F0.8410000205039978
F-0.45099812746047974
F-0.29815787076950073
tp1154
(F-0.32126420736312866
F-0.6299121975898743
F0.32126420736312866
F0.6299121975898743
tp1155
tp1156
a((F0.840999960899353
F-0.6795778870582581
F0.6867934465408325
tp1157
(F-0.09329386055469513
F-0.7009254097938538
F0.09329398721456528
F0.7009251713752747
tp1158
tp1159
a((F0.8410003185272217
F0.5153148174285889
F-0.7289752960205078
tp1160
(F0.5091865658760071
F-0.49064162373542786
F-0.5091864466667175
F0.49064135551452637
tp1161
tp1162
a((F0.8410000205039978
F0.2368578016757965
F-0.7674332857131958
tp1163
(F0.44401153922080994
F-0.5503215789794922
F-0.44401153922080994
F0.5503215789794922
tp1164
tp1165
a((F0.8410000205039978
F0.20363658666610718
F-0.5651650428771973
tp1166
(F0.5901600122451782
F-0.38950127363204956
F-0.5901598334312439
F0.3895012140274048
tp1167
tp1168
a((F0.8410001397132874
F0.5593981742858887
F-0.021317973732948303
tp1169
(F0.21803978085517883
F-0.6726505756378174
F-0.21803982555866241
F0.6726503968238831
tp1170
tp1171
a((F0.8410002589225769
F-0.0834704041481018
F-0.9495911598205566
tp1172
(F0.49522334337234497
F-0.5047315955162048
F-0.49522316455841064
F0.5047315359115601
tp1173
tp1174
a((F0.8410000205039978
F0.7495758533477783
F0.43363818526268005
tp1175
(F0.6911200284957886
F0.1495097428560257
F-0.6911200284957886
F-0.1495097279548645
tp1176
tp1177
a((F0.840999960899353
F0.6270363926887512
F-0.46715405583381653
tp1178
(F0.4789004325866699
F-0.5202444195747375
F-0.47890058159828186
F0.5202446579933167
tp1179
tp1180
a((F0.8410000205039978
F0.07758340239524841
F-0.6800358295440674
tp1181
(F0.12948296964168549
F-0.6951504945755005
F-0.12948296964168549
F0.6951504945755005
tp1182
tp1183
a((F0.8409999012947083
F0.8002712726593018
F-0.10224615037441254
tp1184
(F0.6954519152641296
F-0.12785395979881287
F-0.6954518556594849
F0.12785398960113525
tp1185
tp1186
a((F0.8410000205039978
F-0.553799569606781
F-0.7836808562278748
tp1187
(F0.41168054938316345
F-0.5749078989028931
F-0.41168054938316345
F0.5749078989028931
tp1188
tp1189
a((F0.8410000205039978
F-0.5532065629959106
F0.6622404456138611
tp1190
(F-0.4491162598133087
F-0.5461634993553162
F0.4491162598133087
F0.5461634993553162
tp1191
tp1192
a((F0.8410000205039978
F0.1869116872549057
F0.6563720703125
tp1193
(F0.704244077205658
F-0.06356334686279297
F-0.704244077205658
F0.06356334686279297
tp1194
tp1195
a((F0.8410000205039978
F-0.7491731643676758
F0.33282652497291565
tp1196
(F-0.19578610360622406
F-0.6794614195823669
F0.19578610360622406
F0.6794614195823669
tp1197
tp1198
a((F0.8410000205039978
F0.5848006010055542
F-0.47262412309646606
tp1199
(F0.36339667439460754
F-0.6065828800201416
F-0.36339667439460754
F0.6065828800201416
tp1200
tp1201
a((F0.8410000205039978
F-0.001508176326751709
F-0.5128148198127747
tp1202
(F-0.26812198758125305
F-0.654301643371582
F0.26812198758125305
F0.654301643371582
tp1203
tp1204
a((F0.8410000205039978
F0.3422201871871948
F-0.27797698974609375
tp1205
(F0.31577566266059875
F-0.6326813697814941
F-0.31577569246292114
F0.6326813697814941
tp1206
tp1207
a((F0.840999960899353
F0.7166010141372681
F-0.24379171431064606
tp1208
(F-0.669778048992157
F0.22670960426330566
F0.6697782278060913
F-0.22670957446098328
tp1209
tp1210
a((F0.8410001993179321
F-0.6369123458862305
F0.5062326192855835
tp1211
(F-0.3804152309894562
F-0.5960573554039001
F0.38041532039642334
F0.5960571765899658
tp1212
tp1213
a((F0.8410002589225769
F-0.616730809211731
F0.5138995051383972
tp1214
(F-0.44759511947631836
F-0.5474106669425964
F0.4475953280925751
F0.5474109053611755
tp1215
tp1216
a((F0.8410002589225769
F-0.49174734950065613
F0.34198370575904846
tp1217
(F-0.29627034068107605
F-0.6420465111732483
F0.2962705194950104
F0.6420466303825378
tp1218
tp1219
a((F0.8410000205039978
F-0.24913203716278076
F0.2821144461631775
tp1220
(F0.6782481074333191
F0.19994865357875824
F-0.6782481074333191
F-0.19994865357875824
tp1221
tp1222
a((F0.8410000205039978
F0.6873146891593933
F-0.41857942938804626
tp1223
(F0.5489379167556763
F-0.4457208812236786
F-0.5489378571510315
F0.4457208812236786
tp1224
tp1225
a((F0.8410000801086426
F0.5684069395065308
F0.2813025116920471
tp1226
(F0.5979622006416321
F-0.3774140179157257
F-0.5979621410369873
F0.3774139881134033
tp1227
tp1228
a((F0.8410000205039978
F0.41279518604278564
F-0.3498258888721466
tp1229
(F0.10813877731561661
F-0.6987890005111694
F-0.10813877731561661
F0.6987890005111694
tp1230
tp1231
a((F0.8410000205039978
F-0.9689831733703613
F-0.00469169020652771
tp1232
(F0.1541321575641632
F-0.6901038289070129
F-0.1541321575641632
F0.6901038289070129
tp1233
tp1234
a((F0.8410000801086426
F-0.4898867607116699
F0.32419782876968384
tp1235
(F0.5949851274490356
F0.38209009170532227
F-0.5949851274490356
F-0.38209009170532227
tp1236
tp1237
a((F0.8410000205039978
F-0.8732472658157349
F0.12257415056228638
tp1238
(F-0.03077288717031479
F-0.7064368724822998
F0.03077288717031479
F0.7064368724822998
tp1239
tp1240
a((F0.8410002589225769
F0.6547706127166748
F-0.0023088157176971436
tp1241
(F0.38246458768844604
F-0.5947445034980774
F-0.38246455788612366
F0.5947441458702087
tp1242
tp1243
a((F0.8410000205039978
F-0.5119785070419312
F-0.3528425991535187
tp1244
(F-0.3590598404407501
F-0.6091600656509399
F0.3590598404407501
F0.6091600656509399
tp1245
tp1246
a((F0.8410000801086426
F-0.4411420226097107
F0.6381931900978088
tp1247
(F-0.5834107398986816
F-0.399539589881897
F0.5834107995033264
F0.399539589881897
tp1248
tp1249
a((F0.840999960899353
F0.5603861212730408
F-0.34593889117240906
tp1250
(F-0.5387018918991089
F0.4580395221710205
F0.5387019515037537
F-0.4580395519733429
tp1251
tp1252
a((F0.8409998416900635
F0.3950492739677429
F0.7601721286773682
tp1253
(F0.6992676854133606
F0.10499955713748932
F-0.6992675065994263
F-0.10499951243400574
tp1254
tp1255
a((F0.8410002589225769
F0.6264216303825378
F0.7536609768867493
tp1256
(F-0.5432072281837463
F-0.4526872932910919
F0.5432072877883911
F0.45268741250038147
tp1257
tp1258
a((F0.8410000205039978
F0.4495812654495239
F0.4491235017776489
tp1259
(F0.5623172521591187
F-0.4287182688713074
F-0.5623172521591187
F0.4287182688713074
tp1260
tp1261
a((F0.8410000205039978
F-0.22477301955223083
F-0.32817625999450684
tp1262
(F-0.06415403634309769
F-0.7041904926300049
F0.06415403634309769
F0.7041904926300049
tp1263
tp1264
a((F0.8410000205039978
F-0.5487706661224365
F-0.5201672315597534
tp1265
(F-0.203207865357399
F-0.6772787570953369
F0.203207865357399
F0.6772787570953369
tp1266
tp1267
a((F0.8410000205039978
F0.8659515380859375
F0.17583879828453064
tp1268
(F0.6915278434753418
F0.14761212468147278
F-0.6915278434753418
F-0.1476120948791504
tp1269
tp1270
a((F0.8410000205039978
F-0.6699291467666626
F-0.46830782294273376
tp1271
(F0.2519013583660126
F-0.66071617603302
F-0.25190138816833496
F0.6607161164283752
tp1272
tp1273
a((F0.8410000205039978
F-0.987289547920227
F-0.01928606629371643
tp1274
(F0.1686430722475052
F-0.6867019534111023
F-0.1686430722475052
F0.6867019534111023
tp1275
tp1276
a((F0.8410000801086426
F0.8253211975097656
F-0.26149314641952515
tp1277
(F0.6165521144866943
F-0.34621313214302063
F-0.6165519952774048
F0.346213161945343
tp1278
tp1279
a((F0.8410000205039978
F0.5100855231285095
F-0.41150379180908203
tp1280
(F0.6692545413970947
F-0.22825069725513458
F-0.6692545413970947
F0.22825069725513458
tp1281
tp1282
a((F0.8410000205039978
F-0.9374383687973022
F-0.297186940908432
tp1283
(F0.2560815215110779
F-0.6591072082519531
F-0.2560815215110779
F0.6591072082519531
tp1284
tp1285
a((F0.8410000205039978
F0.8781247138977051
F-0.08568809926509857
tp1286
(F0.7064966559410095
F0.029368650168180466
F-0.7064966559410095
F-0.029368650168180466
tp1287
tp1288
a((F0.8410000205039978
F0.2521265149116516
F-0.7662237286567688
tp1289
(F0.32502296566963196
F-0.6279809474945068
F-0.32502296566963196
F0.6279809474945068
tp1290
tp1291
a((F0.8410000205039978
F0.7960616946220398
F0.16230466961860657
tp1292
(F0.6954969167709351
F0.12760905921459198
F-0.6954969167709351
F-0.12760905921459198
tp1293
tp1294
a((F0.8410000205039978
F-0.5155772566795349
F-0.49207019805908203
tp1295
(F-0.1010892316699028
F-0.6998435258865356
F0.1010892316699028
F0.6998435258865356
tp1296
tp1297
a((F0.8410000801086426
F-0.2600584924221039
F0.7805551290512085
tp1298
(F-0.5334137678146362
F-0.4641870856285095
F0.5334137678146362
F0.4641872048377991
tp1299
tp1300
a((F0.8409999012947083
F-0.11215640604496002
F0.5135342478752136
tp1301
(F-0.6706947684288025
F0.223983034491539
F0.670694887638092
F-0.22398313879966736
tp1302
tp1303
a((F0.8410000205039978
F-0.695350170135498
F-0.11596308648586273
tp1304
(F-0.3084959387779236
F-0.6362627744674683
F0.3084959387779236
F0.6362627744674683
tp1305
tp1306
a((F0.8410000205039978
F0.6540303230285645
F0.1760024130344391
tp1307
(F0.69691401720047
F-0.11962791532278061
F-0.6969139575958252
F0.1196279227733612
tp1308
tp1309
a((F0.8410000205039978
F-0.4899406433105469
F0.4814641773700714
tp1310
(F-0.2641598582267761
F-0.6559112668037415
F0.2641598880290985
F0.6559112668037415
tp1311
tp1312
a((F0.8410000801086426
F-0.1796765923500061
F0.7727619409561157
tp1313
(F-0.4859243631362915
F-0.5136901140213013
F0.4859244227409363
F0.5136901140213013
tp1314
tp1315
a((F0.8409998416900635
F-0.36778903007507324
F0.2115362286567688
tp1316
(F0.62372887134552
F0.333109974861145
F-0.6237287521362305
F-0.333109974861145
tp1317
tp1318
a((F0.8410000205039978
F-0.26503294706344604
F0.48235467076301575
tp1319
(F0.7053260803222656
F-0.05015142634510994
F-0.7053260803222656
F0.05015142634510994
tp1320
tp1321
a((F0.8410000205039978
F0.3326210677623749
F0.8682459592819214
tp1322
(F-0.5519621968269348
F-0.44197016954421997
F0.5519623160362244
F0.4419701397418976
tp1323
tp1324
a((F0.8410000205039978
F-0.6208425164222717
F0.4404103755950928
tp1325
(F-0.3563903570175171
F-0.6107257604598999
F0.3563903570175171
F0.6107257604598999
tp1326
tp1327
a((F0.8410000205039978
F0.4307073652744293
F-0.8773528337478638
tp1328
(F0.6615039110183716
F-0.24982506036758423
F-0.6615039110183716
F0.24982506036758423
tp1329
tp1330
a((F0.8410000205039978
F-0.39900481700897217
F-0.04002450406551361
tp1331
(F-0.3793521523475647
F-0.596734344959259
F0.3793521523475647
F0.5967344045639038
tp1332
tp1333
a((F0.840999960899353
F0.1183663010597229
F-0.7590523958206177
tp1334
(F0.5332687497138977
F-0.4643537998199463
F-0.5332687497138977
F0.46435388922691345
tp1335
tp1336
a((F0.8410000205039978
F-0.4517359733581543
F-0.474386602640152
tp1337
(F-0.26394128799438477
F-0.6559992432594299
F0.2639412581920624
F0.6559992432594299
tp1338
tp1339
a((F0.8410000205039978
F0.7869827747344971
F-0.2856428921222687
tp1340
(F0.6893971562385559
F-0.15726271271705627
F-0.6893971562385559
F0.15726271271705627
tp1341
tp1342
a((F0.8410000205039978
F-0.11519656330347061
F0.5052220821380615
tp1343
(F0.5464395880699158
F0.4487802982330322
F-0.5464395880699158
F-0.4487802982330322
tp1344
tp1345
a((F0.8410000205039978
F-0.6975288391113281
F-0.36553263664245605
tp1346
(F0.03542283922433853
F-0.706218957901001
F-0.035422828048467636
F0.706218957901001
tp1347
tp1348
a((F0.8410000205039978
F-0.8020753860473633
F0.05360966920852661
tp1349
(F-0.14801746606826782
F-0.6914411187171936
F0.14801748096942902
F0.6914411187171936
tp1350
tp1351
a((F0.8410000205039978
F-0.19716906547546387
F0.8043079376220703
tp1352
(F-0.43798285722732544
F-0.5551315546035767
F0.4379829168319702
F0.5551315546035767
tp1353
tp1354
a((F0.8410000205039978
F0.47304362058639526
F0.3498886525630951
tp1355
(F0.687038779258728
F0.16726557910442352
F-0.6870387196540833
F-0.16726557910442352
tp1356
tp1357
a((F0.8410000205039978
F0.13832779228687286
F0.3896810710430145
tp1358
(F0.7070262432098389
F-0.01067631971091032
F-0.7070262432098389
F0.01067631971091032
tp1359
tp1360
a((F0.8410000205039978
F0.4980792999267578
F-0.6809374094009399
tp1361
(F0.5405929684638977
F-0.4558062255382538
F-0.5405929088592529
F0.45580625534057617
tp1362
tp1363
a((F0.8410000205039978
F0.17473289370536804
F0.5194078087806702
tp1364
(F0.6326485872268677
F-0.31584128737449646
F-0.6326485872268677
F0.31584128737449646
tp1365
tp1366
a((F0.8410000205039978
F-0.006316393613815308
F0.7462050914764404
tp1367
(F0.5581796765327454
F0.4340915381908417
F-0.5581796765327454
F-0.43409156799316406
tp1368
tp1369
a((F0.8410000205039978
F-0.9066601991653442
F-0.29896488785743713
tp1370
(F0.21088236570358276
F-0.674928605556488
F-0.21088236570358276
F0.674928605556488
tp1371
tp1372
a((F0.840999960899353
F0.5977903604507446
F0.5210268497467041
tp1373
(F-0.6890397071838379
F0.15882158279418945
F0.6890397071838379
F-0.15882164239883423
tp1374
tp1375
a((F0.8410000205039978
F-0.5872663855552673
F-0.49807676672935486
tp1376
(F0.035280805081129074
F-0.706226110458374
F-0.035280805081129074
F0.706226110458374
tp1377
tp1378
a((F0.8410000205039978
F-0.8353561162948608
F0.4665735960006714
tp1379
(F-0.0011285148793831468
F-0.707105815410614
F0.001128525473177433
F0.707105815410614
tp1380
tp1381
a((F0.8410000205039978
F-0.5131677985191345
F-0.20347723364830017
tp1382
(F0.012977030128240585
F-0.706987738609314
F-0.012977030128240585
F0.706987738609314
tp1383
tp1384
a((F0.8410000205039978
F-0.1625780165195465
F0.9533371925354004
tp1385
(F-0.3319210708141327
F-0.6243623495101929
F0.3319210708141327
F0.6243623495101929
tp1386
tp1387
a((F0.8410002589225769
F0.13569492101669312
F0.8430960774421692
tp1388
(F-0.5313255190849304
F-0.4665760099887848
F0.5313255786895752
F0.4665760099887848
tp1389
tp1390
a((F0.8410000801086426
F0.7205104827880859
F-0.14894181489944458
tp1391
(F0.6684375405311584
F-0.2306322306394577
F-0.6684375405311584
F0.23063209652900696
tp1392
tp1393
a((F0.8410001993179321
F-0.7694603204727173
F0.1268901824951172
tp1394
(F-0.29708346724510193
F-0.6416707634925842
F0.2970835566520691
F0.641670823097229
tp1395
tp1396
a((F0.8410000205039978
F-0.5184490084648132
F-0.7929709553718567
tp1397
(F0.24257516860961914
F-0.6641967296600342
F-0.24257516860961914
F0.6641967296600342
tp1398
tp1399
a((F0.8410000205039978
F-0.6074582934379578
F0.38356173038482666
tp1400
(F0.5250726342201233
F0.4736018180847168
F-0.5250726342201233
F-0.4736018180847168
tp1401
tp1402
a((F0.8410000205039978
F0.7495710253715515
F0.05837118625640869
tp1403
(F0.5659866333007812
F-0.42386212944984436
F-0.5659866333007812
F0.42386215925216675
tp1404
tp1405
a((F0.8410000205039978
F-0.8895440101623535
F0.25455325841903687
tp1406
(F-0.06910576671361923
F-0.7037218809127808
F0.06910576671361923
F0.7037218809127808
tp1407
tp1408
a((F0.8410001397132874
F-0.8916752934455872
F0.14955773949623108
tp1409
(F-0.09812931716442108
F-0.7002646923065186
F0.09812931716442108
F0.7002646923065186
tp1410
tp1411
a((F0.8410001397132874
F-0.292391300201416
F0.3124813437461853
tp1412
(F-0.6303321719169617
F-0.3204391896724701
F0.6303322315216064
F0.32043924927711487
tp1413
tp1414
a((F0.8410000205039978
F-0.38820627331733704
F-0.7264305353164673
tp1415
(F0.015919560566544533
F-0.7069275379180908
F-0.015919581055641174
F0.7069275379180908
tp1416
tp1417
a((F0.840999960899353
F0.33636242151260376
F-0.44049084186553955
tp1418
(F0.641739547252655
F-0.29693496227264404
F-0.641739547252655
F0.29693496227264404
tp1419
tp1420
a((F0.8410000205039978
F0.8239908218383789
F0.060791075229644775
tp1421
(F0.7016591429710388
F-0.08760394901037216
F-0.7016592025756836
F0.08760393410921097
tp1422
tp1423
a((F0.8410000205039978
F-0.9051898717880249
F0.27701693773269653
tp1424
(F-0.07111642509698868
F-0.7035214900970459
F0.07111642509698868
F0.7035214900970459
tp1425
tp1426
a((F0.8410000205039978
F0.3191405236721039
F-0.43792086839675903
tp1427
(F0.08047719299793243
F-0.702512264251709
F-0.08047719299793243
F0.702512264251709
tp1428
tp1429
a((F0.8410000205039978
F-0.8926952481269836
F0.4094018340110779
tp1430
(F-0.16567619144916534
F-0.6874237656593323
F0.16567617654800415
F0.6874237656593323
tp1431
tp1432
a((F0.8410000205039978
F-0.2559078335762024
F-0.7834432125091553
tp1433
(F0.3129257261753082
F-0.6340958476066589
F-0.3129257261753082
F0.6340958476066589
tp1434
tp1435
a((F0.8410000205039978
F0.06520697474479675
F0.7306057214736938
tp1436
(F0.7071062326431274
F0.0008703115745447576
F-0.7071062326431274
F-0.000870280375238508
tp1437
tp1438
a((F0.8410000205039978
F0.6384167671203613
F0.23945239186286926
tp1439
(F0.6600809097290039
F-0.2535609304904938
F-0.6600809097290039
F0.2535609304904938
tp1440
tp1441
a((F0.8410000205039978
F0.45862877368927
F0.5595318078994751
tp1442
(F-0.7047399282455444
F0.05780826508998871
F0.7047398090362549
F-0.057808246463537216
tp1443
tp1444
a((F0.8410000205039978
F-0.6344362497329712
F0.705639123916626
tp1445
(F-0.21530640125274658
F-0.6735303997993469
F0.21530640125274658
F0.6735303997993469
tp1446
tp1447
a((F0.8410000205039978
F-0.4003775119781494
F-0.14352531731128693
tp1448
(F-0.19641892611980438
F-0.6792787909507751
F0.19641892611980438
F0.6792787313461304
tp1449
tp1450
a((F0.8410000205039978
F0.3794558644294739
F0.7358608245849609
tp1451
(F-0.6608901023864746
F-0.2514442503452301
F0.6608902812004089
F0.2514442503452301
tp1452
tp1453
a((F0.8410000205039978
F-0.48588669300079346
F-0.523199200630188
tp1454
(F-0.2775914669036865
F-0.6503406167030334
F0.2775914967060089
F0.6503406167030334
tp1455
tp1456
a((F0.8410000205039978
F-0.1551322638988495
F0.7892539501190186
tp1457
(F0.5072236657142639
F0.4926704466342926
F-0.5072236657142639
F-0.4926703870296478
tp1458
tp1459
a((F0.8409996628761292
F0.0028426945209503174
F0.8589430451393127
tp1460
(F0.5345587134361267
F0.46286845207214355
F-0.5345584154129028
F-0.46286827325820923
tp1461
tp1462
a((F0.8410000205039978
F-0.05232030153274536
F0.6143853068351746
tp1463
(F0.6987212896347046
F0.1085747629404068
F-0.6987212896347046
F-0.1085747629404068
tp1464
tp1465
a((F0.8410000205039978
F-0.7220119833946228
F-0.018271148204803467
tp1466
(F-0.41507041454315186
F-0.5724653005599976
F0.41507047414779663
F0.5724653005599976
tp1467
tp1468
a((F0.8409997820854187
F0.3043794631958008
F0.9095391035079956
tp1469
(F0.6172881722450256
F0.3448989987373352
F-0.6172881722450256
F-0.3448989987373352
tp1470
tp1471
a((F0.8409998416900635
F0.15457263588905334
F-0.7516981363296509
tp1472
(F0.38905027508735657
F-0.5904572010040283
F-0.38905033469200134
F0.5904574394226074
tp1473
tp1474
a((F0.8410000205039978
F-0.3572152853012085
F0.686551034450531
tp1475
(F-0.4068129062652588
F-0.5783625841140747
F0.4068129360675812
F0.5783625841140747
tp1476
tp1477
a((F0.8410000205039978
F-0.2482060343027115
F-0.6818530559539795
tp1478
(F-0.06865781545639038
F-0.7037656903266907
F0.06865781545639038
F0.7037656903266907
tp1479
tp1480
a((F0.8410000205039978
F-0.4144126772880554
F-0.5107927322387695
tp1481
(F-0.08351767063140869
F-0.7021572589874268
F0.08351767063140869
F0.7021572589874268
tp1482
tp1483
a((F0.8410000205039978
F-0.8453615307807922
F-0.027225229889154434
tp1484
(F-0.3064376711845398
F-0.6372565031051636
F0.3064376711845398
F0.6372565031051636
tp1485
tp1486
a((F0.8410000801086426
F0.8424074649810791
F-0.30465826392173767
tp1487
(F-0.6973931193351746
F0.11680243909358978
F0.6973931789398193
F-0.11680237948894501
tp1488
tp1489
a((F0.8410000205039978
F0.31714585423469543
F0.7455097436904907
tp1490
(F0.6726124286651611
F0.21815726161003113
F-0.6726124286651611
F-0.21815727651119232
tp1491
tp1492
a((F0.8410000205039978
F-0.5381642580032349
F0.46231791377067566
tp1493
(F-0.629460871219635
F-0.3221474587917328
F0.629460871219635
F0.32214754819869995
tp1494
tp1495
a((F0.8410000205039978
F0.6359632015228271
F0.4733431935310364
tp1496
(F0.6825830340385437
F0.18460862338542938
F-0.6825830340385437
F-0.1846086084842682
tp1497
tp1498
a((F0.8410000205039978
F-0.41007474064826965
F0.7318320274353027
tp1499
(F-0.30293145775794983
F-0.6389307975769043
F0.30293145775794983
F0.6389307975769043
tp1500
tp1501
a((F0.8410000205039978
F-0.3493490517139435
F-0.5767521262168884
tp1502
(F-0.06790979206562042
F-0.7038382291793823
F0.06790979206562042
F0.7038382291793823
tp1503
tp1504
a((F0.8410000205039978
F0.6839202046394348
F-0.3977413773536682
tp1505
(F0.5371416807174683
F-0.45986828207969666
F-0.5371416807174683
F0.45986828207969666
tp1506
tp1507
a((F0.8410000801086426
F-0.5283030271530151
F0.3926185965538025
tp1508
(F-0.48896390199661255
F-0.5107979774475098
F0.48896390199661255
F0.5107977986335754
tp1509
tp1510
asS'torso'
p1511
(F0.2
tp1512
sS'robot'
p1513
Vpr2
p1514
sS'filename'
p1515
S'top_left_ir.pickle'
p1516
s.