(dp0
S'gripper_link'
p1
I51
sS'robot'
p2
S'pr2'
p3
sS'filename'
p4
S'top_right_ir.pickle'
p5
sS'carry_conf'
p6
cnumpy.core.multiarray
_reconstruct
p7
(cnumpy
ndarray
p8
(I0
tp9
S'b'
p10
tp11
Rp12
(I1
(I7
tp13
cnumpy
dtype
p14
(S'f8'
p15
I0
I1
tp16
Rp17
(I3
S'<'
p18
NNNI-1
I-1
I0
tp19
bI00
S'\x81\xd08\xdc`\xab\xe5\xbf\xc3\xba\xd0\xe0\xdf\xf5\xd5\xbf333333\xf3\xbflb\xdch[x\xf7\xbf\xee\\9\xf7.\xe0\xf3\xbf?@1\x91VE\xff\xbfr\x16\xf6\xb4\xc3\xc7\x01@'
p20
tp21
bsS'arg'
p22
S'right'
p23
sS'grasp_type'
p24
S'top'
p25
sS'gripper_from_base'
p26
(lp27
((F0.9562456607818604
F-0.7018877267837524
F-0.39004263281822205
tp28
(F-0.6388576030731201
F-0.30311912298202515
F0.6388586759567261
F0.30304980278015137
tp29
tp30
a((F0.9562223553657532
F0.07524460554122925
F0.8044496774673462
tp31
(F0.4388207495212555
F-0.5544411540031433
F-0.4388570487499237
F0.5544689893722534
tp32
tp33
a((F0.9559611678123474
F0.5150711536407471
F-0.10800373554229736
tp34
(F0.4828803837299347
F-0.5165500640869141
F-0.4828886091709137
F0.5165472626686096
tp35
tp36
a((F0.9560402631759644
F-0.14641675353050232
F-0.3534420132637024
tp37
(F-0.10186055302619934
F-0.699744462966919
F0.10186760127544403
F0.6997178792953491
tp38
tp39
a((F0.9560558795928955
F0.5688324570655823
F0.43034398555755615
tp40
(F0.6130651235580444
F-0.3523533046245575
F-0.6130648255348206
F0.35234925150871277
tp41
tp42
a((F0.9559459686279297
F-0.46546071767807007
F-0.5218750238418579
tp43
(F-0.3575335144996643
F-0.6100609302520752
F0.3575293719768524
F0.6100558042526245
tp44
tp45
a((F0.9560641050338745
F0.4285486936569214
F-0.06781714409589767
tp46
(F0.6436974406242371
F-0.29267486929893494
F-0.6436864733695984
F0.2926819324493408
tp47
tp48
a((F0.956084132194519
F0.9052252173423767
F-0.12572938203811646
tp49
(F-0.0009586879750713706
F-0.7071094512939453
F0.0009539760649204254
F0.70710289478302
tp50
tp51
a((F0.9560617208480835
F0.2846614420413971
F0.6514241099357605
tp52
(F-0.6902721524238586
F0.153375044465065
F0.6902737617492676
F-0.153370663523674
tp53
tp54
a((F0.9560005068778992
F-0.583976149559021
F-0.13896453380584717
tp55
(F-0.5975623726844788
F-0.37804654240608215
F0.5975624322891235
F0.378046452999115
tp56
tp57
a((F0.956084132194519
F0.14481395483016968
F0.537225067615509
tp58
(F-0.7013370990753174
F0.09012319892644882
F0.7013442516326904
F-0.09011346846818924
tp59
tp60
a((F0.9569998979568481
F0.11494097113609314
F0.36804288625717163
tp61
(F-0.6993151307106018
F0.10438529402017593
F0.6994175910949707
F-0.10429367423057556
tp62
tp63
a((F0.9560004472732544
F-0.4000021815299988
F0.22097110748291016
tp64
(F0.680606484413147
F0.19176742434501648
F-0.680606484413147
F-0.19176742434501648
tp65
tp66
a((F0.956131100654602
F-0.2529943883419037
F-0.20565807819366455
tp67
(F-0.30340173840522766
F-0.6387158632278442
F0.3034239411354065
F0.6386888027191162
tp68
tp69
a((F0.9560410976409912
F0.10770450532436371
F-0.5736095309257507
tp70
(F0.254169225692749
F-0.6598444581031799
F-0.2541663944721222
F0.6598506569862366
tp71
tp72
a((F0.9563280344009399
F-0.13282762467861176
F0.5562244653701782
tp73
(F-0.6916078925132751
F0.14710888266563416
F0.691663384437561
F-0.1471031755208969
tp74
tp75
a((F0.9559996128082275
F0.5506554245948792
F-0.23254144191741943
tp76
(F0.05753124877810478
F-0.7047624588012695
F-0.05753124877810478
F0.7047624588012695
tp77
tp78
a((F0.9559463858604431
F-0.027239114046096802
F-0.8441497087478638
tp79
(F-0.3794238567352295
F-0.5966887474060059
F0.3794197738170624
F0.5966915488243103
tp80
tp81
a((F0.9564086198806763
F-0.5113053321838379
F0.4701958894729614
tp82
(F-0.694019615650177
F0.13523444533348083
F0.6940785050392151
F-0.13529039919376373
tp83
tp84
a((F0.955953061580658
F-0.0662803053855896
F-0.5898915529251099
tp85
(F0.023881928995251656
F-0.7067073583602905
F-0.023885726928710938
F0.7066991925239563
tp86
tp87
a((F0.9559564590454102
F-0.3076370656490326
F-0.49221906065940857
tp88
(F-0.28216084837913513
F-0.6483766436576843
F0.2821565866470337
F0.6483677625656128
tp89
tp90
a((F0.9560646414756775
F0.6224409341812134
F-0.6994273662567139
tp91
(F-0.37017160654067993
F-0.6024755835533142
F0.37016957998275757
F0.6024704575538635
tp92
tp93
a((F0.9559677243232727
F-0.2551800608634949
F-0.40769898891448975
tp94
(F-0.12782332301139832
F-0.6954675912857056
F0.12782518565654755
F0.6954472661018372
tp95
tp96
a((F0.9560719132423401
F0.2922484278678894
F0.5777729749679565
tp97
(F-0.6687242388725281
F0.2297966480255127
F0.6687289476394653
F-0.22978901863098145
tp98
tp99
a((F0.9560002088546753
F-0.1440163254737854
F0.5793675780296326
tp100
(F0.7071053981781006
F-0.0013788366923108697
F-0.7071053981781006
F0.0013788366923108697
tp101
tp102
a((F0.9560860991477966
F-0.16391518712043762
F0.5580915212631226
tp103
(F-0.6661073565483093
F-0.23725968599319458
F0.6661180853843689
F0.23726725578308105
tp104
tp105
a((F0.9562674760818481
F-0.21230044960975647
F-0.16599756479263306
tp106
(F-0.3208238482475281
F-0.6301417946815491
F0.3208591639995575
F0.630113422870636
tp107
tp108
a((F0.9561780691146851
F-0.5899755954742432
F0.038382768630981445
tp109
(F-0.541782557964325
F-0.45437756180763245
F0.5418238043785095
F0.4543563425540924
tp110
tp111
a((F0.9560002088546753
F-0.3277199864387512
F0.4352737069129944
tp112
(F-0.6984745264053345
F-0.11015091836452484
F0.698474645614624
F0.11015099287033081
tp113
tp114
a((F0.9560413360595703
F-0.35286247730255127
F-0.14206641912460327
tp115
(F-0.4073215425014496
F-0.5780095458030701
F0.40733569860458374
F0.5779895186424255
tp116
tp117
a((F0.9560002684593201
F-0.32297810912132263
F0.41656824946403503
tp118
(F-0.691474437713623
F-0.1478620171546936
F0.691474437713623
F0.1478620022535324
tp119
tp120
a((F0.9560545682907104
F0.4470759332180023
F0.3906274139881134
tp121
(F0.7021915912628174
F-0.08324046432971954
F-0.7021890878677368
F0.08323724567890167
tp122
tp123
a((F0.9558482766151428
F0.5169962048530579
F-0.39042526483535767
tp124
(F-0.15064053237438202
F-0.6908656358718872
F0.15064211189746857
F0.6908828020095825
tp125
tp126
a((F0.956157386302948
F-0.8633191585540771
F-0.1624135971069336
tp127
(F-0.6959283351898193
F-0.12525002658367157
F0.6959307789802551
F0.12520530819892883
tp128
tp129
a((F0.9559678435325623
F-0.38308385014533997
F-0.3394862413406372
tp130
(F0.04746466875076294
F-0.7055197358131409
F-0.04745587706565857
F0.7055047750473022
tp131
tp132
a((F0.9561159610748291
F-0.04540067911148071
F0.5602649450302124
tp133
(F-0.7065207362174988
F0.028571713715791702
F0.7065383791923523
F-0.02856191247701645
tp134
tp135
a((F0.9559417963027954
F0.05949711799621582
F-0.8908066153526306
tp136
(F-0.35655343532562256
F-0.6106299757957458
F0.35655030608177185
F0.6106328368186951
tp137
tp138
a((F0.9559964537620544
F0.038111090660095215
F-0.7948215007781982
tp139
(F-0.3861406445503235
F-0.5923642516136169
F0.3861403167247772
F0.592364490032196
tp140
tp141
a((F0.956682026386261
F-0.5562009215354919
F0.10931073874235153
tp142
(F-0.6785028576850891
F-0.19896653294563293
F0.678594172000885
F0.19888733327388763
tp143
tp144
a((F0.9560732841491699
F0.8937311172485352
F0.3683067858219147
tp145
(F0.1179828867316246
F-0.6971950531005859
F-0.11798908561468124
F0.6971927285194397
tp146
tp147
a((F0.9560643434524536
F0.2814564108848572
F0.49944162368774414
tp148
(F0.6953267455101013
F0.12853480875492096
F-0.6953252553939819
F-0.1285395473241806
tp149
tp150
a((F0.955998957157135
F0.5601690411567688
F0.22255456447601318
tp151
(F0.3553377091884613
F-0.61133873462677
F-0.35533761978149414
F0.6113388538360596
tp152
tp153
a((F0.9570321440696716
F0.13110113143920898
F0.36146271228790283
tp154
(F-0.7040380835533142
F0.06531957536935806
F0.704138457775116
F-0.065213143825531
tp155
tp156
a((F0.9560009837150574
F0.6327171921730042
F0.39037126302719116
tp157
(F0.24570976197719574
F-0.6630435585975647
F-0.2457098811864853
F0.6630435585975647
tp158
tp159
a((F0.9564357995986938
F0.4336974322795868
F-0.70598304271698
tp160
(F-0.07759222388267517
F-0.7028736472129822
F0.0775679349899292
F0.7028024196624756
tp161
tp162
a((F0.9560045003890991
F0.3022941052913666
F0.5787427425384521
tp163
(F-0.5673456788063049
F0.42204105854034424
F0.5673462748527527
F-0.4220406711101532
tp164
tp165
a((F0.9560900330543518
F0.1535169929265976
F0.7911410331726074
tp166
(F-0.6166925430297852
F0.3459530472755432
F0.6167053580284119
F-0.34594976902008057
tp167
tp168
a((F0.9560002684593201
F-0.2658758759498596
F0.35969027876853943
tp169
(F0.6334155797958374
F0.3143004775047302
F-0.6334155201911926
F-0.3143004775047302
tp170
tp171
a((F0.9559434652328491
F0.372880220413208
F-0.5735548138618469
tp172
(F0.011056280694901943
F-0.7070196866989136
F-0.011062701232731342
F0.7070209383964539
tp173
tp174
a((F0.9561802744865417
F0.08077502250671387
F-0.28356504440307617
tp175
(F0.10943018645048141
F-0.6986068487167358
F-0.10942237824201584
F0.6985701322555542
tp176
tp177
a((F0.95616614818573
F-0.6940059661865234
F-0.5401195287704468
tp178
(F0.6153852939605713
F0.3483092486858368
F-0.6153832077980042
F-0.34826016426086426
tp179
tp180
a((F0.9560002088546753
F-0.26732903718948364
F-0.026794135570526123
tp181
(F-0.39880526065826416
F-0.5839129090309143
F0.39880529046058655
F0.5839129686355591
tp182
tp183
a((F0.955994188785553
F0.12570378184318542
F-0.6768950819969177
tp184
(F-0.2331889420747757
F-0.6675500273704529
F0.23318824172019958
F0.6675502061843872
tp185
tp186
a((F0.9559295177459717
F-0.24925079941749573
F-0.45447689294815063
tp187
(F-0.4268593490123749
F-0.5637387633323669
F0.4268474876880646
F0.5637296438217163
tp188
tp189
a((F0.9562009572982788
F-0.5890272855758667
F-0.5134385824203491
tp190
(F-0.5382081866264343
F-0.4586438834667206
F0.5382170677185059
F0.4585847556591034
tp191
tp192
a((F0.9560006260871887
F0.5721955299377441
F0.620705783367157
tp193
(F0.43179526925086975
F-0.5599579215049744
F-0.4317953586578369
F0.5599578022956848
tp194
tp195
a((F0.9566280841827393
F0.176435187458992
F0.22515836358070374
tp196
(F-0.7045298218727112
F0.06004780903458595
F0.7045815587043762
F-0.05997372418642044
tp197
tp198
a((F0.9560445547103882
F0.49587464332580566
F-0.13341960310935974
tp199
(F0.5999255180358887
F-0.3742883503437042
F-0.599918007850647
F0.37429386377334595
tp200
tp201
a((F0.9559527635574341
F0.347994863986969
F-0.34571942687034607
tp202
(F0.12536469101905823
F-0.6959056258201599
F-0.12537524104118347
F0.6959024667739868
tp203
tp204
a((F0.9561501741409302
F-0.4112216830253601
F0.7264745235443115
tp205
(F-0.6382464170455933
F0.30433300137519836
F0.6382709741592407
F-0.3043566942214966
tp206
tp207
a((F0.9561072587966919
F-0.9154530167579651
F-0.18309590220451355
tp208
(F-0.692574143409729
F-0.1426277458667755
F0.6925774216651917
F0.14260028302669525
tp209
tp210
a((F0.9560006260871887
F-0.29379940032958984
F0.39296847581863403
tp211
(F0.7046794891357422
F-0.05853964760899544
F-0.7046794891357422
F0.05853965878486633
tp212
tp213
a((F0.9569157361984253
F-0.6383659839630127
F-0.10409271717071533
tp214
(F-0.6676919460296631
F-0.23277722299098969
F0.6677541136741638
F0.23260879516601562
tp215
tp216
a((F0.9560031294822693
F0.38983768224716187
F0.5183947086334229
tp217
(F0.4093870520591736
F-0.5765433311462402
F-0.4093874990940094
F0.5765431523323059
tp218
tp219
a((F0.9560925960540771
F0.13323712348937988
F0.4999741017818451
tp220
(F-0.7070915102958679
F0.00417371978983283
F0.7070974111557007
F-0.00416242890059948
tp221
tp222
a((F0.95606929063797
F0.8209296464920044
F0.47566279768943787
tp223
(F0.18853037059307098
F-0.681510329246521
F-0.18853726983070374
F0.6815083026885986
tp224
tp225
a((F0.9560002088546753
F0.05331152677536011
F0.7651707530021667
tp226
(F0.6492701768875122
F-0.2800862789154053
F-0.6492701768875122
F0.2800862789154053
tp227
tp228
a((F0.9560668468475342
F0.6189172267913818
F-0.5885004997253418
tp229
(F-0.04385906830430031
F-0.7057476043701172
F0.04386147856712341
F0.7057428956031799
tp230
tp231
a((F0.9559988975524902
F0.42070019245147705
F0.42240360379219055
tp232
(F0.511241614818573
F-0.48849985003471375
F-0.5112414956092834
F0.4884999096393585
tp233
tp234
a((F0.9558621048927307
F0.6858156323432922
F-0.05934092402458191
tp235
(F0.01674089953303337
F-0.706902265548706
F-0.016729388386011124
F0.7069152593612671
tp236
tp237
a((F0.9560003280639648
F-0.15177497267723083
F0.3405884802341461
tp238
(F0.5921170115470886
F0.38651973009109497
F-0.5921170115470886
F-0.38651973009109497
tp239
tp240
a((F0.9559509754180908
F-0.630381166934967
F-0.103453129529953
tp241
(F-0.3729846775531769
F-0.6007375121116638
F0.3729858994483948
F0.600731611251831
tp242
tp243
a((F0.9559519290924072
F-0.5405224561691284
F-0.5642619729042053
tp244
(F-0.3615386188030243
F-0.607693612575531
F0.3615366220474243
F0.6076920628547668
tp245
tp246
a((F0.9559499621391296
F-0.2637093961238861
F-0.6370564699172974
tp247
(F-0.16221873462200165
F-0.6882502436637878
F0.1622154414653778
F0.6882463097572327
tp248
tp249
a((F0.9560563564300537
F0.5196526050567627
F0.252642422914505
tp250
(F0.6802668571472168
F-0.19297809898853302
F-0.6802623867988586
F0.19297581911087036
tp251
tp252
a((F0.9570922255516052
F-0.5868883728981018
F0.00796353816986084
tp253
(F-0.6683488488197327
F-0.2307925522327423
F0.6684694886207581
F0.23063652217388153
tp254
tp255
a((F0.9560719728469849
F0.6975060701370239
F0.4590376615524292
tp256
(F0.4556359648704529
F-0.5407376885414124
F-0.4556390345096588
F0.5407324433326721
tp257
tp258
a((F0.9561084508895874
F-0.8726581335067749
F0.3456852436065674
tp259
(F-0.7055785655975342
F0.04637179896235466
F0.7055892944335938
F-0.046391863375902176
tp260
tp261
a((F0.9560680389404297
F0.33986184000968933
F-0.10262954235076904
tp262
(F0.404045969247818
F-0.5803050398826599
F-0.4040626287460327
F0.5802813768386841
tp263
tp264
a((F0.9560003876686096
F0.27031654119491577
F0.5822620391845703
tp265
(F0.5688790678977966
F-0.4199722409248352
F-0.5688790082931519
F0.4199722409248352
tp266
tp267
a((F0.9559977054595947
F0.4439007639884949
F-0.6079577803611755
tp268
(F-0.002814862411469221
F-0.7071011066436768
F0.002814696868881583
F0.7071011662483215
tp269
tp270
a((F0.9559274911880493
F0.5511597990989685
F-0.009043681435286999
tp271
(F0.4401019811630249
F-0.5534476041793823
F-0.4401102066040039
F0.5534519553184509
tp272
tp273
a((F0.9560732841491699
F0.6396000385284424
F0.6925538778305054
tp274
(F0.227998286485672
F-0.6693382263183594
F-0.228007972240448
F0.669339656829834
tp275
tp276
a((F0.9559526443481445
F0.42233264446258545
F0.19354572892189026
tp277
(F0.4253558814525604
F-0.5648571252822876
F-0.4253658950328827
F0.5648651123046875
tp278
tp279
a((F0.9560516476631165
F0.32940199971199036
F-0.6801540851593018
tp280
(F0.07617462426424026
F-0.7029920816421509
F-0.07617146521806717
F0.7029919028282166
tp281
tp282
a((F0.9560611844062805
F0.6502063274383545
F0.28254610300064087
tp283
(F0.4906163513660431
F-0.5092138648033142
F-0.49061644077301025
F0.5092076659202576
tp284
tp285
a((F0.9560003876686096
F-0.46205803751945496
F0.3392013609409332
tp286
(F-0.6377615332603455
F-0.3053853511810303
F0.6377615928649902
F0.3053852915763855
tp287
tp288
a((F0.9559190273284912
F0.17012245953083038
F-0.5150560140609741
tp289
(F-0.10858605802059174
F-0.698722243309021
F0.1085720956325531
F0.6987191438674927
tp290
tp291
a((F0.9560651779174805
F0.8606101274490356
F-0.08129200339317322
tp292
(F0.07313691079616547
F-0.7033171653747559
F-0.0731402337551117
F0.703311026096344
tp293
tp294
a((F0.955999493598938
F0.38532137870788574
F-0.42058801651000977
tp295
(F-0.21010389924049377
F-0.6751713752746582
F0.21010389924049377
F0.6751713752746582
tp296
tp297
a((F0.9559997320175171
F0.48566967248916626
F-0.4076012670993805
tp298
(F-0.2428845763206482
F-0.6640836596488953
F0.2428845763206482
F0.6640836596488953
tp299
tp300
a((F0.9559564590454102
F-0.5555975437164307
F-0.14735054969787598
tp301
(F-0.3112673759460449
F-0.6349153518676758
F0.31127071380615234
F0.6349060535430908
tp302
tp303
a((F0.9559386968612671
F0.004176691174507141
F-0.4738961458206177
tp304
(F-0.30602407455444336
F-0.6374610662460327
F0.3060111105442047
F0.6374558806419373
tp305
tp306
a((F0.9559993743896484
F0.5828408002853394
F0.2601478397846222
tp307
(F0.45160120725631714
F-0.5441105961799622
F-0.45160117745399475
F0.5441105961799622
tp308
tp309
a((F0.9561166763305664
F0.2003488540649414
F0.8984808325767517
tp310
(F0.35873162746429443
F-0.6093414425849915
F-0.35874876379966736
F0.6093553900718689
tp311
tp312
a((F0.9561916589736938
F-0.6887472867965698
F-0.450257807970047
tp313
(F-0.6072801351547241
F-0.36225438117980957
F0.6072848439216614
F0.3621983826160431
tp314
tp315
a((F0.9560617208480835
F0.6595301628112793
F0.4712240397930145
tp316
(F0.4542025327682495
F-0.5419419407844543
F-0.45420631766319275
F0.5419366359710693
tp317
tp318
a((F0.9559224247932434
F0.21089786291122437
F-0.5087469220161438
tp319
(F-0.09988219290971756
F-0.7000179886817932
F0.09986989200115204
F0.7000173926353455
tp320
tp321
a((F0.9558907747268677
F0.49782097339630127
F-0.12204456329345703
tp322
(F0.14054334163665771
F-0.692992627620697
F-0.14055036008358002
F0.6930038928985596
tp323
tp324
a((F0.9560567736625671
F-0.5766893625259399
F-0.22217616438865662
tp325
(F-0.19920796155929565
F-0.6784632802009583
F0.19920599460601807
F0.6784694790840149
tp326
tp327
a((F0.9560002088546753
F-0.5913531184196472
F0.4621065855026245
tp328
(F0.7070565223693848
F0.008428714238107204
F-0.7070565223693848
F-0.008428714238107204
tp329
tp330
a((F0.9559744000434875
F-0.19896554946899414
F-0.41772037744522095
tp331
(F-0.3184714913368225
F-0.6313389539718628
F0.31846529245376587
F0.6313216090202332
tp332
tp333
a((F0.9560009837150574
F0.6541681289672852
F0.5301017165184021
tp334
(F0.33350685238838196
F-0.623516857624054
F-0.3335069417953491
F0.6235167384147644
tp335
tp336
a((F0.9559997320175171
F0.7389407157897949
F-0.016066960990428925
tp337
(F0.14252404868602753
F-0.6925942897796631
F-0.14252404868602753
F0.6925942897796631
tp338
tp339
a((F0.9560025334358215
F0.6724913716316223
F0.27957236766815186
tp340
(F0.3898877799510956
F-0.5899049639701843
F-0.38988789916038513
F0.5899044871330261
tp341
tp342
a((F0.9559484124183655
F-0.46215951442718506
F-0.30761289596557617
tp343
(F-0.3003612756729126
F-0.6401499509811401
F0.30036258697509766
F0.6401354670524597
tp344
tp345
a((F0.9560744166374207
F-0.2251202017068863
F0.8037787675857544
tp346
(F-0.6754351258277893
F0.20923438668251038
F0.6754469275474548
F-0.2092360258102417
tp347
tp348
a((F0.9567078948020935
F-0.4847443699836731
F0.19591310620307922
tp349
(F-0.6835363507270813
F-0.18087343871593475
F0.6836424469947815
F0.1808202713727951
tp350
tp351
a((F0.9561676383018494
F-0.07697683572769165
F0.5809293389320374
tp352
(F-0.6967742443084717
F0.12035982310771942
F0.6968031525611877
F-0.1203516274690628
tp353
tp354
a((F0.9560496211051941
F0.605473518371582
F-0.07901594042778015
tp355
(F0.4996570348739624
F-0.500345766544342
F-0.4996516704559326
F0.5003449320793152
tp356
tp357
a((F0.9559237957000732
F0.48707151412963867
F-0.07308328151702881
tp358
(F0.309332013130188
F-0.6358515620231628
F-0.30934205651283264
F0.6358569264411926
tp359
tp360
a((F0.9562199115753174
F0.2282359004020691
F-0.15940648317337036
tp361
(F-0.5260828137397766
F0.4725060760974884
F0.526083767414093
F-0.4724518656730652
tp362
tp363
a((F0.9559776782989502
F0.4001922905445099
F-0.1346432864665985
tp364
(F0.43561264872550964
F-0.5569930672645569
F-0.43562373518943787
F0.5569849610328674
tp365
tp366
a((F0.9559512138366699
F-0.12654075026512146
F-0.6189233064651489
tp367
(F-0.23003800213336945
F-0.6686457395553589
F0.23003149032592773
F0.6686411499977112
tp368
tp369
a((F0.9559997320175171
F0.10961756110191345
F-0.8248593807220459
tp370
(F-0.387582004070282
F-0.5914223194122314
F0.38758188486099243
F0.5914222598075867
tp371
tp372
a((F0.9560003876686096
F-0.048930853605270386
F0.7698822617530823
tp373
(F0.6348366141319275
F-0.3114199936389923
F-0.6348366141319275
F0.3114199936389923
tp374
tp375
a((F0.9560815691947937
F0.017194092273712158
F0.6290428638458252
tp376
(F-0.7070953845977783
F0.0031962143257260323
F0.7071037888526917
F-0.003188720205798745
tp377
tp378
a((F0.9569774270057678
F0.050608038902282715
F0.4313550591468811
tp379
(F-0.6589836478233337
F0.25628718733787537
F0.6590878367424011
F-0.25624340772628784
tp380
tp381
a((F0.9561123847961426
F-0.26658734679222107
F0.8714066743850708
tp382
(F-0.5706993937492371
F0.4174756705760956
F0.570716381072998
F-0.4174913465976715
tp383
tp384
a((F0.9560956954956055
F-0.4316007196903229
F0.42783322930336
tp385
(F-0.5623889565467834
F-0.42861196398735046
F0.5624043941497803
F0.4286162555217743
tp386
tp387
a((F0.9562044143676758
F0.139923095703125
F-0.24002733826637268
tp388
(F0.28593289852142334
F-0.6467399001121521
F-0.2859257459640503
F0.6466965675354004
tp389
tp390
a((F0.9559984803199768
F0.5400547385215759
F0.1501116156578064
tp391
(F0.3980903923511505
F-0.5844005346298218
F-0.39809033274650574
F0.5844007730484009
tp392
tp393
a((F0.9570894837379456
F-0.4848352074623108
F-0.11333046853542328
tp394
(F-0.6021376252174377
F-0.37068817019462585
F0.6022534370422363
F0.37055569887161255
tp395
tp396
a((F0.9559684991836548
F-0.45845258235931396
F-0.21592170000076294
tp397
(F-0.23834684491157532
F-0.6657312512397766
F0.23835313320159912
F0.6657180786132812
tp398
tp399
a((F0.9565455317497253
F0.418811559677124
F0.5431939363479614
tp400
(F0.41640761494636536
F-0.5714681148529053
F-0.41648903489112854
F0.571459174156189
tp401
tp402
a((F0.956000566482544
F-0.5576421022415161
F0.5718109607696533
tp403
(F-0.705387532711029
F0.04927997663617134
F0.705387532711029
F-0.049280066043138504
tp404
tp405
a((F0.9563928842544556
F-0.24926990270614624
F0.2685636579990387
tp406
(F-0.5529620051383972
F-0.4406636357307434
F0.5530311465263367
F0.4406871199607849
tp407
tp408
a((F0.9560002088546753
F-0.057644158601760864
F0.6144131422042847
tp409
(F0.6909177303314209
F-0.15044155716896057
F-0.6909177303314209
F0.15044155716896057
tp410
tp411
a((F0.9559465646743774
F0.20812025666236877
F-0.7678925395011902
tp412
(F-0.14074692130088806
F-0.6929574608802795
F0.14074264466762543
F0.6929588317871094
tp413
tp414
a((F0.9559486508369446
F-0.06536471843719482
F-0.6219635009765625
tp415
(F-0.20191511511802673
F-0.6776684522628784
F0.20190785825252533
F0.6776643991470337
tp416
tp417
a((F0.956041693687439
F0.47853878140449524
F-0.05089259147644043
tp418
(F0.6424992084503174
F-0.2952935993671417
F-0.6424909234046936
F0.29529955983161926
tp419
tp420
a((F0.956053614616394
F0.432376503944397
F-0.7380533218383789
tp421
(F-0.07519850879907608
F-0.7030977010726929
F0.07520086318254471
F0.7030956149101257
tp422
tp423
a((F0.9561017751693726
F0.8529772758483887
F0.25565606355667114
tp424
(F0.009311353787779808
F-0.7070462107658386
F-0.009325086139142513
F0.7070444822311401
tp425
tp426
a((F0.9559549689292908
F0.12883269786834717
F-0.546317458152771
tp427
(F0.16722318530082703
F-0.6870529055595398
F-0.16722829639911652
F0.687044084072113
tp428
tp429
a((F0.9560753703117371
F0.09064938873052597
F0.5337053537368774
tp430
(F-0.7034348845481873
F-0.07193923741579056
F0.7034398317337036
F0.07194801419973373
tp431
tp432
a((F0.9560004472732544
F-0.023914694786071777
F0.5185980200767517
tp433
(F-0.5916780829429626
F0.38719117641448975
F0.5916780829429626
F-0.38719117641448975
tp434
tp435
a((F0.9562820196151733
F-0.6034242510795593
F-0.08957183361053467
tp436
(F-0.5764645934104919
F-0.40948811173439026
F0.5765135884284973
F0.40943872928619385
tp437
tp438
a((F0.9568142890930176
F-0.6792463064193726
F0.14345619082450867
tp439
(F-0.706716001033783
F-0.022668838500976562
F0.7067755460739136
F0.022518226876854897
tp440
tp441
a((F0.955959677696228
F0.07981163263320923
F-0.5074109435081482
tp442
(F-0.06395582109689713
F-0.70421302318573
F0.0639476478099823
F0.704204797744751
tp443
tp444
a((F0.9559988379478455
F0.06236058473587036
F-0.8028209805488586
tp445
(F-0.357186496257782
F-0.610260546207428
F0.35718637704849243
F0.610260546207428
tp446
tp447
a((F0.9559482932090759
F-0.34611958265304565
F-0.7266760468482971
tp448
(F-0.4193822741508484
F-0.5693159699440002
F0.4193773865699768
F0.5693157911300659
tp449
tp450
a((F0.9560062289237976
F0.33507633209228516
F-0.21953706443309784
tp451
(F0.25907719135284424
F-0.657939612865448
F-0.25908955931663513
F0.6579263806343079
tp452
tp453
a((F0.9560757279396057
F0.8738137483596802
F-0.012485027313232422
tp454
(F0.13926973938941956
F-0.693259060382843
F-0.13927282392978668
F0.693252444267273
tp455
tp456
a((F0.9559219479560852
F-0.0027986764907836914
F-0.6654497981071472
tp457
(F-0.3620709180831909
F-0.6073756814002991
F0.3620624244213104
F0.6073798537254333
tp458
tp459
a((F0.9561818838119507
F-0.6625158190727234
F0.07660017162561417
tp460
(F-0.625477135181427
F-0.32979434728622437
F0.625514566898346
F0.32976609468460083
tp461
tp462
a((F0.9560233354568481
F0.24836361408233643
F-0.2827640771865845
tp463
(F0.30861568450927734
F-0.6362133622169495
F-0.3086225688457489
F0.6361926198005676
tp464
tp465
a((F0.9560827016830444
F-0.6762600541114807
F-0.045723721385002136
tp466
(F-0.4665162265300751
F-0.5313748717308044
F0.46653294563293457
F0.5313664674758911
tp467
tp468
a((F0.9560002684593201
F-0.1640271693468094
F0.6142069101333618
tp469
(F0.670703649520874
F-0.2239566296339035
F-0.670703649520874
F0.2239566594362259
tp470
tp471
a((F0.9559555649757385
F-0.46660059690475464
F-0.4267425537109375
tp472
(F-0.3747721016407013
F-0.5996260643005371
F0.37476882338523865
F0.5996189117431641
tp473
tp474
a((F0.9570131897926331
F0.13478267192840576
F0.4271593689918518
tp475
(F-0.6100397109985352
F0.35749369859695435
F0.6101449728012085
F-0.3574533760547638
tp476
tp477
a((F0.9560930728912354
F0.7961064577102661
F0.2942834794521332
tp478
(F0.19886085391044617
F-0.6785697340965271
F-0.19887113571166992
F0.678563117980957
tp479
tp480
a((F0.9559885263442993
F-0.2120686173439026
F-0.40007516741752625
tp481
(F-0.21418243646621704
F-0.6738966703414917
F0.2141820341348648
F0.6738806962966919
tp482
tp483
a((F0.9560544490814209
F0.848792552947998
F-0.46381866931915283
tp484
(F-0.19803164899349213
F-0.6788123250007629
F0.1980298012495041
F0.6788088083267212
tp485
tp486
a((F0.9560008645057678
F-0.12157709896564484
F0.2435327172279358
tp487
(F0.6917451620101929
F0.1465902477502823
F-0.6917451620101929
F-0.1465902477502823
tp488
tp489
a((F0.9559995532035828
F0.4613962769508362
F-0.09853213280439377
tp490
(F0.43763700127601624
F-0.5554041266441345
F-0.437637060880661
F0.5554041266441345
tp491
tp492
a((F0.9560002684593201
F-0.38602542877197266
F0.40738582611083984
tp493
(F-0.6497726440429688
F-0.27891838550567627
F0.6497727036476135
F0.2789183259010315
tp494
tp495
a((F0.9558976292610168
F0.7954138517379761
F-0.06084546446800232
tp496
(F0.012330944649875164
F-0.7069945931434631
F-0.012322025373578072
F0.707004189491272
tp497
tp498
a((F0.9560003876686096
F0.32497572898864746
F0.5397217869758606
tp499
(F-0.5844870209693909
F0.3979634940624237
F0.5844870209693909
F-0.39796343445777893
tp500
tp501
a((F0.9560715556144714
F0.5123631954193115
F0.514945387840271
tp502
(F-0.6288465857505798
F0.3233470916748047
F0.6288471817970276
F-0.3233417868614197
tp503
tp504
a((F0.9559530019760132
F-0.4066656827926636
F-0.5118700861930847
tp505
(F-0.3730870187282562
F-0.600675642490387
F0.3730821907520294
F0.6006699800491333
tp506
tp507
a((F0.9564806818962097
F-0.6657124757766724
F0.26540929079055786
tp508
(F-0.7061666250228882
F0.035938456654548645
F0.7062146067619324
F-0.036027852445840836
tp509
tp510
a((F0.9560543298721313
F0.07284486293792725
F-0.37084177136421204
tp511
(F-0.034384213387966156
F-0.7062820792198181
F0.034380365163087845
F0.7062586545944214
tp512
tp513
a((F0.9559996724128723
F0.71087646484375
F-0.44376835227012634
tp514
(F-0.11877340823411942
F-0.697060227394104
F0.11877340823411942
F0.697060227394104
tp515
tp516
a((F0.9559506773948669
F-0.6002524495124817
F-0.3189883232116699
tp517
(F-0.34867823123931885
F-0.6151639223098755
F0.34867724776268005
F0.6151593327522278
tp518
tp519
a((F0.9560004472732544
F0.13308361172676086
F0.4583137631416321
tp520
(F0.6846917867660522
F0.17662733793258667
F-0.6846917867660522
F-0.17662732303142548
tp521
tp522
a((F0.9559510946273804
F-0.6326364874839783
F-0.10092271864414215
tp523
(F-0.3294304311275482
F-0.6256820559501648
F0.3294316828250885
F0.6256774663925171
tp524
tp525
a((F0.9570997953414917
F-0.5666297674179077
F-0.589773952960968
tp526
(F-0.4049600660800934
F-0.5797430872917175
F0.40504875779151917
F0.5795178413391113
tp527
tp528
a((F0.9560827612876892
F-0.3707968592643738
F0.4881832003593445
tp529
(F-0.6566914319992065
F-0.2621934413909912
F0.6567069888114929
F0.26219651103019714
tp530
tp531
a((F0.9566737413406372
F-0.1297072470188141
F0.34109506011009216
tp532
(F-0.7006803750991821
F-0.09479714184999466
F0.7007615566253662
F0.09483630210161209
tp533
tp534
a((F0.9559584856033325
F0.15550559759140015
F-0.5036153197288513
tp535
(F0.27305662631988525
F-0.6522625088691711
F-0.27306100726127625
F0.6522510647773743
tp536
tp537
a((F0.9559991359710693
F0.41182905435562134
F-0.6674695014953613
tp538
(F-0.04270762577652931
F-0.7058159112930298
F0.04270758479833603
F0.7058159112930298
tp539
tp540
a((F0.9560709595680237
F0.9137723445892334
F-0.08172371983528137
tp541
(F0.09254921972751617
F-0.7010264992713928
F-0.09255147725343704
F0.7010213136672974
tp542
tp543
a((F0.9560691714286804
F0.6297053694725037
F0.7188178896903992
tp544
(F0.23120145499706268
F-0.668238639831543
F-0.23121008276939392
F0.6682401895523071
tp545
tp546
a((F0.955922544002533
F-0.034637451171875
F-0.5928781032562256
tp547
(F-0.3569340705871582
F-0.6104095578193665
F0.35692456364631653
F0.6104121804237366
tp548
tp549
a((F0.9560000896453857
F0.05281975865364075
F0.723736047744751
tp550
(F-0.6527361273765564
F0.271911084651947
F0.6527361273765564
F-0.27191105484962463
tp551
tp552
a((F0.956072986125946
F0.281684935092926
F0.282406747341156
tp553
(F-0.5547811388969421
F0.43841785192489624
F0.5547967553138733
F-0.43841552734375
tp554
tp555
a((F0.9560537338256836
F0.4287765622138977
F0.48522520065307617
tp556
(F0.6964462399482727
F-0.1223263144493103
F-0.6964451670646667
F0.12232308834791183
tp557
tp558
a((F0.9561018943786621
F0.04510599374771118
F-0.3308347165584564
tp559
(F0.18142817914485931
F-0.6834552884101868
F-0.1814202070236206
F0.6834174394607544
tp560
tp561
a((F0.9562570452690125
F-0.5603677034378052
F0.5599402189254761
tp562
(F-0.6601799130439758
F0.25323814153671265
F0.6602100133895874
F-0.2532896399497986
tp563
tp564
a((F0.9558641910552979
F0.6655797362327576
F0.02707815170288086
tp565
(F0.02618805132806301
F-0.706616222858429
F-0.026174981147050858
F0.7066276669502258
tp566
tp567
a((F0.9560606479644775
F0.3993438482284546
F0.7134976983070374
tp568
(F-0.5838858485221863
F0.3988434076309204
F0.5838907957077026
F-0.3988395035266876
tp569
tp570
a((F0.9561124444007874
F0.8564082980155945
F0.09223723411560059
tp571
(F-0.022883737459778786
F-0.7067393064498901
F0.022869708016514778
F0.7067340612411499
tp572
tp573
a((F0.956335186958313
F-0.4867025911808014
F0.08848710358142853
tp574
(F-0.5723713040351868
F-0.4151657223701477
F0.5724390745162964
F0.4151408076286316
tp575
tp576
a((F0.9571555256843567
F0.5163822770118713
F0.4564698338508606
tp577
(F0.2753545641899109
F-0.6512529850006104
F-0.27551642060279846
F0.6512604355812073
tp578
tp579
a((F0.9560524225234985
F0.586810827255249
F0.1949945092201233
tp580
(F0.65190589427948
F-0.2739005982875824
F-0.6519022583961487
F0.27389881014823914
tp581
tp582
a((F0.9559999108314514
F0.3657550811767578
F0.0901394784450531
tp583
(F0.5842262506484985
F-0.39834627509117126
F-0.5842262506484985
F0.39834627509117126
tp584
tp585
a((F0.9560341238975525
F0.3751722574234009
F-0.0828065425157547
tp586
(F-0.5904427766799927
F0.38907450437545776
F0.5904566049575806
F-0.3890491724014282
tp587
tp588
a((F0.9560004472732544
F0.12196563184261322
F0.7357566952705383
tp589
(F-0.6133171916007996
F0.3519119918346405
F0.6133171916007996
F-0.3519119322299957
tp590
tp591
a((F0.9559997916221619
F0.27739810943603516
F-0.620918869972229
tp592
(F-0.3764299154281616
F-0.5985820293426514
F0.3764299154281616
F0.5985820293426514
tp593
tp594
a((F0.9560414552688599
F0.4828702509403229
F0.03105209767818451
tp595
(F0.690629243850708
F-0.15177613496780396
F-0.6906211972236633
F0.15178163349628448
tp596
tp597
a((F0.9563266038894653
F-0.2513052225112915
F0.021561399102211
tp598
(F-0.38961583375930786
F-0.5900703072547913
F0.38967710733413696
F0.5900577902793884
tp599
tp600
a((F0.9566043615341187
F-0.668755054473877
F0.20735037326812744
tp601
(F-0.7070699334144592
F0.003661375492811203
F0.7071240544319153
F-0.0037715465296059847
tp602
tp603
a((F0.9559999704360962
F0.7633839845657349
F0.09340852499008179
tp604
(F0.16401781141757965
F-0.6878211498260498
F-0.16401782631874084
F0.6878214478492737
tp605
tp606
a((F0.9568064212799072
F-0.6312435269355774
F-0.18250127136707306
tp607
(F-0.6413993835449219
F-0.29768940806388855
F0.6414550542831421
F0.29752829670906067
tp608
tp609
a((F0.9560669660568237
F0.8492758870124817
F-0.34126871824264526
tp610
(F-0.08006534725427628
F-0.7025622725486755
F0.08006314933300018
F0.7025566101074219
tp611
tp612
a((F0.9560002088546753
F-0.6607692241668701
F0.17855721712112427
tp613
(F0.6801944375038147
F0.19322417676448822
F-0.6801944375038147
F-0.19322417676448822
tp614
tp615
a((F0.9559548497200012
F-0.6490381956100464
F-0.12000347673892975
tp616
(F-0.36317136883735657
F-0.6067197322845459
F0.36317184567451477
F0.606715738773346
tp617
tp618
a((F0.9560002088546753
F-0.5436857342720032
F0.3627105951309204
tp619
(F0.6718220710754395
F0.22057917714118958
F-0.6718220710754395
F-0.22057917714118958
tp620
tp621
a((F0.956122100353241
F0.7537850141525269
F0.41886740922927856
tp622
(F0.11079735308885574
F-0.6983709931373596
F-0.1108160987496376
F0.6983708143234253
tp623
tp624
a((F0.9559754133224487
F0.12053996324539185
F-0.4434240460395813
tp625
(F-0.02139386162161827
F-0.7067894339561462
F0.02138495445251465
F0.7067769765853882
tp626
tp627
a((F0.9559688568115234
F0.33365291357040405
F-0.33201998472213745
tp628
(F0.29282721877098083
F-0.6436267495155334
F-0.29283565282821655
F0.6436179280281067
tp629
tp630
a((F0.9559967517852783
F0.14694678783416748
F-0.6077572703361511
tp631
(F0.009441733360290527
F-0.7070439457893372
F-0.009442123584449291
F0.7070435881614685
tp632
tp633
a((F0.9559997320175171
F0.07481840252876282
F-0.4052478075027466
tp634
(F0.21909582614898682
F-0.6723183989524841
F-0.2190966010093689
F0.6722959876060486
tp635
tp636
a((F0.9559705853462219
F-0.07917267084121704
F-0.4597214460372925
tp637
(F-0.2361365109682083
F-0.6665217280387878
F0.23612788319587708
F0.6665073037147522
tp638
tp639
a((F0.9560632705688477
F0.7864248752593994
F0.37475278973579407
tp640
(F0.35921531915664673
F-0.6090698838233948
F-0.35921838879585266
F0.6090652346611023
tp641
tp642
a((F0.9561394453048706
F-0.6834690570831299
F0.36989688873291016
tp643
(F-0.7015346884727478
F-0.0884995236992836
F0.7015612721443176
F0.08847963064908981
tp644
tp645
a((F0.9561203718185425
F-0.6895764470100403
F0.2391800582408905
tp646
(F-0.6607108116149902
F-0.2518899440765381
F0.6607356071472168
F0.25187546014785767
tp647
tp648
a((F0.9559536576271057
F0.46009236574172974
F-0.3782942295074463
tp649
(F0.31575268507003784
F-0.6326925158500671
F-0.31575918197631836
F0.6326900720596313
tp650
tp651
a((F0.9559480547904968
F-0.34385764598846436
F-0.5259682536125183
tp652
(F-0.1871572583913803
F-0.681892991065979
F0.18715445697307587
F0.6818852424621582
tp653
tp654
a((F0.9563230872154236
F-0.6951836943626404
F-0.09857508540153503
tp655
(F-0.6569585204124451
F-0.2615377604961395
F0.6569919586181641
F0.2614668607711792
tp656
tp657
a((F0.955999493598938
F0.34003448486328125
F-0.5838228464126587
tp658
(F-0.08365961909294128
F-0.7021403908729553
F0.08365953713655472
F0.7021403908729553
tp659
tp660
a((F0.9560001492500305
F0.0011127889156341553
F0.6004163026809692
tp661
(F0.6277622580528259
F-0.325445294380188
F-0.6277621388435364
F0.3254452645778656
tp662
tp663
a((F0.956068754196167
F0.8579728007316589
F-0.17223893105983734
tp664
(F-0.06978300213813782
F-0.7036581039428711
F0.06977769732475281
F0.7036523222923279
tp665
tp666
a((F0.9559445381164551
F0.17013490200042725
F-0.5013517141342163
tp667
(F-0.05425899475812912
F-0.7050249576568604
F0.05424836277961731
F0.7050197124481201
tp668
tp669
a((F0.956088662147522
F0.05528894066810608
F0.8352262377738953
tp670
(F-0.5813099145889282
F0.40257787704467773
F0.5813252925872803
F-0.4025799632072449
tp671
tp672
a((F0.9562070369720459
F-0.6678904294967651
F0.07262790203094482
tp673
(F-0.6400937438011169
F-0.30044102668762207
F0.6401336789131165
F0.30040669441223145
tp674
tp675
a((F0.9560033679008484
F-0.01758122444152832
F0.3308049440383911
tp676
(F-0.701139509677887
F0.09166853874921799
F0.7011398673057556
F-0.09166823327541351
tp677
tp678
a((F0.9559994339942932
F0.8067691326141357
F-0.16665765643119812
tp679
(F-0.1364736557006836
F-0.6938118934631348
F0.13647374510765076
F0.6938118934631348
tp680
tp681
a((F0.9560616612434387
F0.9244714379310608
F-0.22002363204956055
tp682
(F-0.1742004156112671
F-0.6853154897689819
F0.1741960048675537
F0.6853120923042297
tp683
tp684
a((F0.9568225741386414
F0.42641282081604004
F0.4585902690887451
tp685
(F0.41669684648513794
F-0.5712493062019348
F-0.41680780053138733
F0.5712348818778992
tp686
tp687
a((F0.9559612274169922
F-0.3332657814025879
F-0.41360437870025635
tp688
(F-0.3247217535972595
F-0.6281437873840332
F0.3247184753417969
F0.6281313300132751
tp689
tp690
a((F0.9559433460235596
F-0.48354703187942505
F-0.5261653661727905
tp691
(F-0.3424268364906311
F-0.6186662912368774
F0.34242314100265503
F0.618661642074585
tp692
tp693
a((F0.9559491872787476
F-0.558910608291626
F-0.040792882442474365
tp694
(F-0.2555210590362549
F-0.659328043460846
F0.2555287182331085
F0.659318208694458
tp695
tp696
a((F0.9560537934303284
F0.4728035628795624
F0.341349720954895
tp697
(F0.675763726234436
F-0.20819787681102753
F-0.6757604479789734
F0.20819400250911713
tp698
tp699
a((F0.9559285640716553
F-0.29415708780288696
F-0.5041545033454895
tp700
(F-0.40087899565696716
F-0.5824990272521973
F0.4008685052394867
F0.5824906826019287
tp701
tp702
a((F0.9560654759407043
F0.7997493743896484
F0.5262587070465088
tp703
(F0.10453914105892181
F-0.6993358135223389
F-0.10454662144184113
F0.6993361115455627
tp704
tp705
a((F0.9559555053710938
F-0.21239261329174042
F-0.5697488188743591
tp706
(F-0.2446109652519226
F-0.6634536981582642
F0.24460560083389282
F0.6634475588798523
tp707
tp708
a((F0.9571236371994019
F-0.4005148410797119
F0.47322535514831543
tp709
(F-0.6337779760360718
F0.3134130835533142
F0.6338642835617065
F-0.3135502338409424
tp710
tp711
a((F0.9560002684593201
F-0.5317991375923157
F0.2900465130805969
tp712
(F0.660180389881134
F0.2533020079135895
F-0.660180389881134
F-0.2533020079135895
tp713
tp714
a((F0.956071674823761
F0.44947323203086853
F0.41395294666290283
tp715
(F0.6842561960220337
F-0.17831425368785858
F-0.6842538714408875
F0.17830868065357208
tp716
tp717
a((F0.9558759331703186
F0.6815627217292786
F0.03138059377670288
tp718
(F-0.018488066270947456
F-0.7068600654602051
F0.01850140653550625
F0.7068697810173035
tp719
tp720
a((F0.9560057520866394
F0.31111061573028564
F0.45349711179733276
tp721
(F0.7029659152030945
F0.07641427218914032
F-0.7029655575752258
F-0.07641463726758957
tp722
tp723
a((F0.956000030040741
F-0.3223179578781128
F0.43501371145248413
tp724
(F0.7008570432662964
F-0.09380502998828888
F-0.7008570432662964
F0.09380502998828888
tp725
tp726
a((F0.9561927318572998
F-0.4606354832649231
F0.2870256006717682
tp727
(F-0.6406698822975159
F-0.2991933822631836
F0.640712559223175
F0.29918694496154785
tp728
tp729
a((F0.9560993909835815
F0.595556914806366
F0.5207538604736328
tp730
(F0.4559648334980011
F-0.5404595136642456
F-0.4559740722179413
F0.540450930595398
tp731
tp732
a((F0.9560565948486328
F0.6122583150863647
F-0.6448144316673279
tp733
(F-0.06914208084344864
F-0.7037197947502136
F0.06914371997117996
F0.7037165760993958
tp734
tp735
a((F0.9562704563140869
F0.09617272019386292
F-0.2556420564651489
tp736
(F0.2845984995365143
F-0.6473373174667358
F-0.2845818102359772
F0.6472799777984619
tp737
tp738
a((F0.9564186930656433
F0.3318718373775482
F0.6028127074241638
tp739
(F0.3274153769016266
F-0.6267105937004089
F-0.32747548818588257
F0.6267318725585938
tp740
tp741
a((F0.9560335874557495
F0.02441611886024475
F-0.3749755620956421
tp742
(F0.25678306818008423
F-0.6588507294654846
F-0.2567770183086395
F0.6588199138641357
tp743
tp744
a((F0.956000804901123
F-0.042841531336307526
F0.785756528377533
tp745
(F-0.6428934931755066
F0.29442811012268066
F0.6428936123847961
F-0.2944280803203583
tp746
tp747
a((F0.9559459686279297
F-0.20955675840377808
F-0.7212471961975098
tp748
(F-0.2698323428630829
F-0.6535999774932861
F0.2698274254798889
F0.6535983681678772
tp749
tp750
a((F0.9561041593551636
F0.6739084124565125
F0.5236550569534302
tp751
(F0.15054082870483398
F-0.6908928751945496
F-0.15055786073207855
F0.690895676612854
tp752
tp753
a((F0.9559996724128723
F0.4835044741630554
F-0.025148913264274597
tp754
(F0.3897484540939331
F-0.5899968147277832
F-0.3897484838962555
F0.5899968147277832
tp755
tp756
a((F0.9567354321479797
F-0.5531359314918518
F0.25833290815353394
tp757
(F-0.7040075063705444
F-0.06562290340662003
F0.7041106224060059
F0.06553754210472107
tp758
tp759
a((F0.9559980630874634
F0.6446600556373596
F0.28762194514274597
tp760
(F0.2578374743461609
F-0.6584222316741943
F-0.2578372359275818
F0.6584222912788391
tp761
tp762
a((F0.9559900760650635
F0.17444922029972076
F-0.4025599956512451
tp763
(F0.41910791397094727
F-0.5695268511772156
F-0.41910919547080994
F0.5695043802261353
tp764
tp765
a((F0.9562380313873291
F-0.27800309658050537
F0.38538283109664917
tp766
(F-0.670096755027771
F-0.22569452226161957
F0.6701417565345764
F0.22570419311523438
tp767
tp768
a((F0.9559304714202881
F0.24256077408790588
F-0.45069119334220886
tp769
(F-0.10102251172065735
F-0.6998537182807922
F0.10101093351840973
F0.6998541355133057
tp770
tp771
a((F0.9560884833335876
F-0.41361531615257263
F0.7865269780158997
tp772
(F-0.6737591624259949
F0.21456441283226013
F0.673772931098938
F-0.21457107365131378
tp773
tp774
a((F0.9559599161148071
F-0.37884220480918884
F-0.34429824352264404
tp775
(F-0.10324294865131378
F-0.699536919593811
F0.10324832051992416
F0.6995205283164978
tp776
tp777
a((F0.9560507535934448
F0.7002551555633545
F-0.2915401756763458
tp778
(F0.30981388688087463
F-0.6356236338615417
F-0.3098113536834717
F0.6356216669082642
tp779
tp780
a((F0.9561126232147217
F-0.2253189980983734
F0.6055254936218262
tp781
(F-0.7070478200912476
F0.008258701302111149
F0.7070692181587219
F-0.00825541839003563
tp782
tp783
a((F0.9560000896453857
F0.2352844476699829
F0.8210506439208984
tp784
(F0.4466065466403961
F-0.5482176542282104
F-0.4466065466403961
F0.5482176542282104
tp785
tp786
a((F0.9560670256614685
F0.9696014523506165
F0.002094864845275879
tp787
(F-0.051464878022670746
F-0.705233097076416
F0.051460351794958115
F0.7052300572395325
tp788
tp789
a((F0.956078827381134
F0.9509694576263428
F0.19906166195869446
tp790
(F0.015619458630681038
F-0.7069354057312012
F-0.015625646337866783
F0.7069328427314758
tp791
tp792
a((F0.9559850692749023
F-0.5783247351646423
F-0.05538517236709595
tp793
(F-0.3865106403827667
F-0.5921240448951721
F0.38651180267333984
F0.5921210050582886
tp794
tp795
a((F0.9566019177436829
F-0.0734739899635315
F0.4887996315956116
tp796
(F-0.6872538924217224
F0.1662195324897766
F0.6873360276222229
F-0.16620030999183655
tp797
tp798
a((F0.956000030040741
F0.45735394954681396
F-0.09273481369018555
tp799
(F0.4423511028289795
F-0.5516570210456848
F-0.44235119223594666
F0.55165696144104
tp800
tp801
a((F0.9561840295791626
F-0.7343614101409912
F-0.1342572569847107
tp802
(F-0.6244720816612244
F-0.33171164989471436
F0.6244981288909912
F0.33166855573654175
tp803
tp804
a((F0.9559400081634521
F-0.05665719509124756
F-0.5072593688964844
tp805
(F-0.3092421591281891
F-0.6359055042266846
F0.309231162071228
F0.635900616645813
tp806
tp807
a((F0.9559192657470703
F0.08832322061061859
F-0.5110352635383606
tp808
(F-0.211949422955513
F-0.6745979189872742
F0.21193520724773407
F0.6745949983596802
tp809
tp810
a((F0.9560511112213135
F0.5076674222946167
F0.3982067108154297
tp811
(F0.3657342195510864
F-0.6051713824272156
F-0.36574360728263855
F0.6051758527755737
tp812
tp813
a((F0.9560002684593201
F0.27853667736053467
F-0.042757272720336914
tp814
(F0.6755819320678711
F-0.20878005027770996
F-0.6755817532539368
F0.20878003537654877
tp815
tp816
a((F0.9560485482215881
F0.49030399322509766
F0.08604639768600464
tp817
(F0.6529412865638733
F-0.27142634987831116
F-0.6529337167739868
F0.2714274227619171
tp818
tp819
a((F0.9560630917549133
F0.7996511459350586
F-0.5040661096572876
tp820
(F-0.19861926138401031
F-0.6786412596702576
F0.19861744344234467
F0.6786366105079651
tp821
tp822
a((F0.956000566482544
F0.3078923225402832
F0.589391827583313
tp823
(F-0.5611550807952881
F0.4302382469177246
F0.5611551403999329
F-0.4302382171154022
tp824
tp825
a((F0.9559487104415894
F-0.016056567430496216
F-0.8495795726776123
tp826
(F-0.29183605313301086
F-0.6440744400024414
F0.2918326258659363
F0.6440758109092712
tp827
tp828
a((F0.9569771885871887
F0.6600465774536133
F0.17556719481945038
tp829
(F0.40497860312461853
F-0.5796606540679932
F-0.4051090478897095
F0.5795450806617737
tp830
tp831
a((F0.9559462666511536
F0.17308226227760315
F-0.6249573230743408
tp832
(F-0.11203712970018387
F-0.6981750726699829
F0.1120300441980362
F0.6981750130653381
tp833
tp834
a((F0.9560800790786743
F0.5055513978004456
F0.2880983352661133
tp835
(F0.6002532839775085
F-0.373765766620636
F-0.600250244140625
F0.37375766038894653
tp836
tp837
a((F0.9559199213981628
F0.4528237581253052
F-0.14335253834724426
tp838
(F0.1896837204694748
F-0.6811857223510742
F-0.1896974742412567
F0.6811908483505249
tp839
tp840
a((F0.9559997916221619
F0.5220481753349304
F-0.5339915752410889
tp841
(F-0.1439695954322815
F-0.6922953128814697
F0.1439695805311203
F0.6922953128814697
tp842
tp843
a((F0.9566271901130676
F0.45160967111587524
F0.5243940353393555
tp844
(F0.36784037947654724
F-0.6038724184036255
F-0.36793291568756104
F0.6038685441017151
tp845
tp846
a((F0.9560725092887878
F0.23589816689491272
F0.6709636449813843
tp847
(F-0.6934353709220886
F0.13836894929409027
F0.6934384107589722
F-0.13836370408535004
tp848
tp849
a((F0.9560002684593201
F-0.33436715602874756
F0.46963781118392944
tp850
(F0.6941285133361816
F0.13485388457775116
F-0.6941285133361816
F-0.13485388457775116
tp851
tp852
a((F0.956024169921875
F-0.06547723710536957
F-0.38755786418914795
tp853
(F0.19151589274406433
F-0.6806960105895996
F-0.19150564074516296
F0.6806616187095642
tp854
tp855
a((F0.9561263918876648
F-0.6235318779945374
F0.043047696352005005
tp856
(F-0.5016903281211853
F-0.498295396566391
F0.5017198920249939
F0.49828284978866577
tp857
tp858
a((F0.956062376499176
F0.6465356349945068
F0.11801418662071228
tp859
(F0.5460317134857178
F-0.44928061962127686
F-0.5460278391838074
F0.4492771029472351
tp860
tp861
a((F0.9559295177459717
F0.12402736395597458
F-0.6610838770866394
tp862
(F-0.265403151512146
F-0.6554088592529297
F0.26539555191993713
F0.6554125547409058
tp863
tp864
a((F0.9559713006019592
F-0.28200578689575195
F-0.3931906819343567
tp865
(F-0.3439057469367981
F-0.6178506016731262
F0.3439020812511444
F0.6178356409072876
tp866
tp867
a((F0.9559341073036194
F0.7248479127883911
F-0.27214527130126953
tp868
(F0.12729373574256897
F-0.6955515146255493
F-0.12729553878307343
F0.695557713508606
tp869
tp870
a((F0.9566083550453186
F0.3861086368560791
F-0.17363551259040833
tp871
(F-0.5842393040657043
F0.3983898162841797
F0.5842416882514954
F-0.39826107025146484
tp872
tp873
a((F0.9561118483543396
F0.25106582045555115
F0.5237683057785034
tp874
(F-0.6496981978416443
F0.27908486127853394
F0.6497094631195068
F-0.27907270193099976
tp875
tp876
a((F0.9559990763664246
F0.24358776211738586
F-0.534854531288147
tp877
(F0.10267569124698639
F-0.6996126174926758
F-0.10267583280801773
F0.6996124386787415
tp878
tp879
a((F0.956303060054779
F-0.6829005479812622
F-0.3995068073272705
tp880
(F0.650799036026001
F0.2765660881996155
F-0.6507903933525085
F-0.2764846086502075
tp881
tp882
a((F0.9559702277183533
F0.14301779866218567
F-0.4615434408187866
tp883
(F0.13275539875030518
F-0.6945384740829468
F-0.13276152312755585
F0.6945263743400574
tp884
tp885
a((F0.9560714960098267
F-0.6758446097373962
F0.12592685222625732
tp886
(F-0.5277566909790039
F-0.4706038236618042
F0.5277696847915649
F0.47059983015060425
tp887
tp888
a((F0.9568359851837158
F-0.14120973646640778
F0.5982435941696167
tp889
(F-0.5770940780639648
F0.4085099697113037
F0.5771940350532532
F-0.40856948494911194
tp890
tp891
a((F0.9560517072677612
F0.78126060962677
F-0.16703841090202332
tp892
(F0.26787304878234863
F-0.6544055938720703
F-0.2678713798522949
F0.6544021368026733
tp893
tp894
a((F0.9564403891563416
F0.5161939859390259
F0.2199772745370865
tp895
(F-0.5650447607040405
F0.4251253306865692
F0.5650765299797058
F-0.4250662326812744
tp896
tp897
a((F0.9560772180557251
F-0.7138322591781616
F-0.07588154077529907
tp898
(F-0.5017949342727661
F-0.4981960952281952
F0.5018088817596436
F0.49818718433380127
tp899
tp900
a((F0.9561263918876648
F0.10718682408332825
F-0.5003066658973694
tp901
(F0.3102167248725891
F-0.6354492902755737
F-0.31020498275756836
F0.6354074478149414
tp902
tp903
a((F0.9560003876686096
F-0.2583793103694916
F0.35720294713974
tp904
(F-0.6308590173721313
F-0.31940075755119324
F0.6308591365814209
F0.319400817155838
tp905
tp906
a((F0.955999493598938
F0.46704983711242676
F0.1490451544523239
tp907
(F0.56032395362854
F-0.4313201308250427
F-0.56032395362854
F0.4313201904296875
tp908
tp909
a((F0.955940842628479
F-0.13977280259132385
F-0.7361901998519897
tp910
(F-0.1865728497505188
F-0.6820502877235413
F0.18656839430332184
F0.682048499584198
tp911
tp912
a((F0.9560880661010742
F0.8019468784332275
F0.43916523456573486
tp913
(F0.2443711757659912
F-0.6635386347770691
F-0.2443796992301941
F0.6635342836380005
tp914
tp915
a((F0.9559378623962402
F0.2858125865459442
F-0.5745527744293213
tp916
(F0.10655665397644043
F-0.6990329623222351
F-0.1065642312169075
F0.699029803276062
tp917
tp918
a((F0.9561290740966797
F-0.6951178312301636
F-0.5006138682365417
tp919
(F-0.5429677367210388
F-0.45298460125923157
F0.5429773330688477
F0.45295315980911255
tp920
tp921
a((F0.9561359882354736
F-0.8076062202453613
F-0.39799395203590393
tp922
(F-0.6377730369567871
F-0.30537405610084534
F0.6377781629562378
F0.30533796548843384
tp923
tp924
a((F0.9560846090316772
F-0.39611536264419556
F0.45311102271080017
tp925
(F-0.5933758616447449
F-0.38457146286964417
F0.5933898687362671
F0.3845754563808441
tp926
tp927
a((F0.9560577273368835
F0.39349180459976196
F0.2686036229133606
tp928
(F0.7058097124099731
F-0.04286719858646393
F-0.7058027982711792
F0.042865194380283356
tp929
tp930
a((F0.9559557437896729
F0.23993469774723053
F-0.5303763747215271
tp931
(F0.18358826637268066
F-0.6828603744506836
F-0.18359416723251343
F0.6828545928001404
tp932
tp933
a((F0.9569942355155945
F-0.37473201751708984
F0.26063916087150574
tp934
(F-0.6920763850212097
F-0.1446879506111145
F0.6922199130058289
F0.14466261863708496
tp935
tp936
a((F0.9560508131980896
F0.45762133598327637
F-0.2426540106534958
tp937
(F0.5760318040847778
F-0.4101075828075409
F-0.5760239362716675
F0.4101167321205139
tp938
tp939
a((F0.9560972452163696
F-0.4345162510871887
F0.6874205470085144
tp940
(F-0.7062111496925354
F0.03542473539710045
F0.7062264680862427
F-0.035427212715148926
tp941
tp942
a((F0.9567331075668335
F0.24102473258972168
F0.5762590765953064
tp943
(F0.36623990535736084
F-0.6048270463943481
F-0.366329550743103
F0.6048597097396851
tp944
tp945
a((F0.9559996724128723
F0.08452041447162628
F-0.6900518536567688
tp946
(F-0.4110642969608307
F-0.5753486752510071
F0.4110642969608307
F0.5753486752510071
tp947
tp948
a((F0.9560862183570862
F-0.18867550790309906
F0.47630202770233154
tp949
(F-0.62227863073349
F-0.33579522371292114
F0.6222915649414062
F0.3358036279678345
tp950
tp951
a((F0.9559988379478455
F0.45338907837867737
F-0.3005427420139313
tp952
(F0.37667563557624817
F-0.5984275937080383
F-0.3766757845878601
F0.5984274744987488
tp953
tp954
a((F0.9560003280639648
F-0.11559838056564331
F0.4185675084590912
tp955
(F0.7008747458457947
F0.09367268532514572
F-0.7008747458457947
F-0.09367268532514572
tp956
tp957
a((F0.9560003876686096
F0.024657011032104492
F0.6996914744377136
tp958
(F-0.6815619468688965
F0.18834292888641357
F0.6815622448921204
F-0.18834292888641357
tp959
tp960
a((F0.9559531211853027
F-0.4390612542629242
F-0.3729724884033203
tp961
(F-0.36207932233810425
F-0.6073766946792603
F0.36207666993141174
F0.6073653697967529
tp962
tp963
a((F0.956136167049408
F-0.047426700592041016
F0.9052129983901978
tp964
(F0.4436992108821869
F-0.5505545735359192
F-0.44371840357780457
F0.5505765676498413
tp965
tp966
a((F0.9569966793060303
F0.5806803107261658
F-0.4679903984069824
tp967
(F0.13580600917339325
F-0.6940266489982605
F-0.1358790248632431
F0.6938447952270508
tp968
tp969
a((F0.9560002684593201
F-0.6531732082366943
F0.20643070340156555
tp970
(F0.6671443581581116
F0.2343468815088272
F-0.6671442985534668
F-0.2343468815088272
tp971
tp972
a((F0.9559993147850037
F0.5780104398727417
F-0.602148175239563
tp973
(F-0.13598711788654327
F-0.6939073801040649
F0.1359870582818985
F0.6939074397087097
tp974
tp975
a((F0.9560483694076538
F0.6087196469306946
F0.06240631639957428
tp976
(F0.6178197860717773
F-0.3439497947692871
F-0.6178158521652222
F0.34394899010658264
tp977
tp978
a((F0.9560567140579224
F0.7639265060424805
F-0.3543849587440491
tp979
(F0.06276398152112961
F-0.7043181657791138
F-0.06276319921016693
F0.704313337802887
tp980
tp981
a((F0.955923855304718
F0.6508870720863342
F-0.06531217694282532
tp982
(F0.2759541869163513
F-0.6510323882102966
F-0.2759566903114319
F0.65104079246521
tp983
tp984
a((F0.9559715986251831
F0.32771822810173035
F-0.31289392709732056
tp985
(F0.40717431902885437
F-0.5781121253967285
F-0.407182514667511
F0.5780984163284302
tp986
tp987
a((F0.9560049176216125
F0.3406604528427124
F-0.61995530128479
tp988
(F0.10561192035675049
F-0.6991753578186035
F-0.10561147332191467
F0.6991753578186035
tp989
tp990
a((F0.9560976028442383
F-0.2534666061401367
F-0.2461506724357605
tp991
(F0.04845119267702103
F-0.7054643630981445
F-0.048415910452604294
F0.7054278254508972
tp992
tp993
a((F0.9559451341629028
F0.4456249475479126
F-0.35030221939086914
tp994
(F0.2465602606534958
F-0.6627269387245178
F-0.24656906723976135
F0.6627252101898193
tp995
tp996
a((F0.9560761451721191
F0.6080922484397888
F0.6434527635574341
tp997
(F0.3658938705921173
F-0.6050782799720764
F-0.3659036159515381
F0.6050755381584167
tp998
tp999
a((F0.9560004472732544
F0.3404139280319214
F0.44382625818252563
tp1000
(F0.6304618120193481
F-0.3201841413974762
F-0.6304618120193481
F0.3201841413974762
tp1001
tp1002
a((F0.955866277217865
F0.7116155028343201
F-0.10925370454788208
tp1003
(F-0.06637661159038544
F-0.7039781212806702
F0.06638962775468826
F0.7039896845817566
tp1004
tp1005
a((F0.9560562372207642
F0.7521041631698608
F-0.1442725658416748
tp1006
(F0.3272716999053955
F-0.6268141865730286
F-0.3272692561149597
F0.6268109679222107
tp1007
tp1008
a((F0.9560611844062805
F0.7333772778511047
F0.0391351580619812
tp1009
(F0.4840468466281891
F-0.5154621005058289
F-0.48404452204704285
F0.5154594779014587
tp1010
tp1011
a((F0.9559375643730164
F-0.28315457701683044
F-0.6631160378456116
tp1012
(F-0.2482498586177826
F-0.6620994210243225
F0.24824479222297668
F0.6620957255363464
tp1013
tp1014
a((F0.9561381340026855
F0.0314866378903389
F-0.31921637058258057
tp1015
(F0.042639292776584625
F-0.7058375477790833
F-0.042631879448890686
F0.7058029770851135
tp1016
tp1017
a((F0.9560735821723938
F0.38982176780700684
F0.5556524395942688
tp1018
(F-0.6769860982894897
F0.20418252050876617
F0.6769870519638062
F-0.20417647063732147
tp1019
tp1020
a((F0.9563102722167969
F-0.8487414121627808
F-0.050347477197647095
tp1021
(F0.7068033814430237
F-0.02089896984398365
F-0.7067899107933044
F0.020985016599297523
tp1022
tp1023
a((F0.9560011625289917
F0.41332656145095825
F0.4721726179122925
tp1024
(F0.3233979344367981
F-0.628819465637207
F-0.32339808344841003
F0.6288192868232727
tp1025
tp1026
a((F0.9559984803199768
F-0.08452266454696655
F-0.41884276270866394
tp1027
(F-0.05874406546354294
F-0.7046723365783691
F0.058743659406900406
F0.7046526074409485
tp1028
tp1029
a((F0.9562702178955078
F-0.7618881464004517
F0.006650403141975403
tp1030
(F-0.6859100461006165
F-0.17180846631526947
F0.685939371585846
F0.1717451810836792
tp1031
tp1032
a((F0.9560999274253845
F-0.7267643213272095
F0.1615627408027649
tp1033
(F-0.6095909476280212
F-0.35831689834594727
F0.6096091270446777
F0.35830795764923096
tp1034
tp1035
a((F0.9558602571487427
F0.6078157424926758
F0.047723595052957535
tp1036
(F0.2201891988515854
F-0.6719426512718201
F-0.22018460929393768
F0.6719589233398438
tp1037
tp1038
a((F0.9561465382575989
F0.011562138795852661
F0.49102190136909485
tp1039
(F-0.7065370678901672
F0.028149977326393127
F0.706555962562561
F-0.028135398402810097
tp1040
tp1041
a((F0.9562422633171082
F-0.06923788785934448
F0.6172806024551392
tp1042
(F-0.6764788627624512
F0.20578713715076447
F0.6765219569206238
F-0.2057816982269287
tp1043
tp1044
a((F0.9559404253959656
F0.320395290851593
F-0.47514063119888306
tp1045
(F0.1763647198677063
F-0.6847612261772156
F-0.17637406289577484
F0.6847553849220276
tp1046
tp1047
a((F0.9561113119125366
F-0.7465195655822754
F-0.1874399483203888
tp1048
(F-0.5479415059089661
F-0.4469442069530487
F0.5479597449302673
F0.4469239413738251
tp1049
tp1050
a((F0.9559996724128723
F0.7477627396583557
F-0.4318387806415558
tp1051
(F-0.13625729084014893
F-0.6938544511795044
F0.13625727593898773
F0.6938543915748596
tp1052
tp1053
a((F0.9559995532035828
F-0.23718446493148804
F-0.3443303108215332
tp1054
(F-0.42218491435050964
F-0.5672492980957031
F0.42218056321144104
F0.5672317147254944
tp1055
tp1056
a((F0.9559524655342102
F-0.3280712366104126
F-0.6705383658409119
tp1057
(F-0.25586819648742676
F-0.6591916680335999
F0.2558651268482208
F0.6591895818710327
tp1058
tp1059
a((F0.9560003280639648
F0.2742428183555603
F0.6330661177635193
tp1060
(F0.4875718355178833
F-0.512126624584198
F-0.4875718355178833
F0.512126624584198
tp1061
tp1062
a((F0.9559433460235596
F-0.10655125975608826
F-0.8017994165420532
tp1063
(F-0.3594520092010498
F-0.6089295148849487
F0.35944676399230957
F0.6089310646057129
tp1064
tp1065
a((F0.9559001326560974
F0.08370763063430786
F-0.6742482781410217
tp1066
(F-0.3587566316127777
F-0.609337329864502
F0.35874807834625244
F0.6093451976776123
tp1067
tp1068
a((F0.9560561180114746
F0.6736375093460083
F-0.48040449619293213
tp1069
(F0.06988735496997833
F-0.7036464214324951
F-0.06988497823476791
F0.7036430239677429
tp1070
tp1071
a((F0.9560002684593201
F-0.12399113178253174
F0.6344412565231323
tp1072
(F0.5477957129478455
F-0.4471239745616913
F-0.5477957129478455
F0.4471239745616913
tp1073
tp1074
a((F0.9559411406517029
F0.6313453316688538
F-0.4022209048271179
tp1075
(F0.12567204236984253
F-0.6958470940589905
F-0.12567590177059174
F0.6958512663841248
tp1076
tp1077
a((F0.9560790061950684
F0.019492298364639282
F0.5331940650939941
tp1078
(F-0.6984447836875916
F-0.1103123351931572
F0.6984521150588989
F0.11032141745090485
tp1079
tp1080
a((F0.9559993743896484
F0.5982985496520996
F-0.2037859559059143
tp1081
(F0.3155449330806732
F-0.6327965259552002
F-0.315544992685318
F0.6327965259552002
tp1082
tp1083
a((F0.9559218883514404
F0.49018537998199463
F0.12116779386997223
tp1084
(F0.4183617830276489
F-0.5700582265853882
F-0.418366402387619
F0.5700671672821045
tp1085
tp1086
a((F0.9560571312904358
F-0.26279130578041077
F-0.2640819847583771
tp1087
(F-0.3800688087940216
F-0.596286416053772
F0.38007596135139465
F0.5962653160095215
tp1088
tp1089
a((F0.9560003280639648
F0.007127821445465088
F0.3643568754196167
tp1090
(F0.6584480404853821
F0.257771760225296
F-0.6584480404853821
F-0.257771760225296
tp1091
tp1092
a((F0.956058919429779
F0.37700462341308594
F0.47288012504577637
tp1093
(F0.6968433856964111
F-0.12004362791776657
F-0.6968424916267395
F0.12003851681947708
tp1094
tp1095
a((F0.956156313419342
F-0.9101231098175049
F0.1436033546924591
tp1096
(F0.691429078578949
F-0.1480628252029419
F-0.6914241909980774
F0.14810754358768463
tp1097
tp1098
a((F0.9562046527862549
F-0.0015072673559188843
F0.7247765064239502
tp1099
(F-0.6000305414199829
F0.37408310174942017
F0.6000686287879944
F-0.37408921122550964
tp1100
tp1101
a((F0.9560590982437134
F0.6071161031723022
F0.2599073648452759
tp1102
(F0.5412995219230652
F-0.4549707770347595
F-0.5412978529930115
F0.4549650549888611
tp1103
tp1104
a((F0.9570530652999878
F-0.39188599586486816
F0.25993672013282776
tp1105
(F-0.7051897644996643
F-0.05117638409137726
F0.7053182125091553
F0.05113280564546585
tp1106
tp1107
a((F0.9560763835906982
F0.3231300115585327
F0.8422075510025024
tp1108
(F0.4611882269382477
F-0.5360032916069031
F-0.461199551820755
F0.5360044836997986
tp1109
tp1110
a((F0.9558845162391663
F0.6597630977630615
F-0.2841242849826813
tp1111
(F-0.14311198890209198
F-0.6924664378166199
F0.14312011003494263
F0.6924781203269958
tp1112
tp1113
a((F0.9560002088546753
F-0.10647888481616974
F0.527698278427124
tp1114
(F0.7063137292861938
F0.03347961977124214
F-0.7063137292861938
F-0.033479612320661545
tp1115
tp1116
a((F0.9560671448707581
F0.29451966285705566
F0.3600304126739502
tp1117
(F0.706052839756012
F-0.03862385451793671
F-0.7060497999191284
F0.03861699625849724
tp1118
tp1119
a((F0.9560473561286926
F0.3150184750556946
F-0.5982199907302856
tp1120
(F0.18596558272838593
F-0.6822143197059631
F-0.18596147000789642
F0.6822160482406616
tp1121
tp1122
a((F0.9560965895652771
F-0.36903470754623413
F0.6161371469497681
tp1123
(F-0.7070920467376709
F-0.002713718917220831
F0.7071110606193542
F0.0027121701277792454
tp1124
tp1125
a((F0.9560816287994385
F-0.014106541872024536
F0.9540846943855286
tp1126
(F0.411268025636673
F-0.5751938819885254
F-0.411277711391449
F0.575205385684967
tp1127
tp1128
a((F0.955937385559082
F0.6431623101234436
F-0.13409221172332764
tp1129
(F0.2751399874687195
F-0.6513779759407043
F-0.2751435935497284
F0.6513837575912476
tp1130
tp1131
a((F0.9560539722442627
F0.5635741353034973
F0.44678354263305664
tp1132
(F0.6208202838897705
F-0.3385021686553955
F-0.6208199262619019
F0.33849844336509705
tp1133
tp1134
a((F0.9561119079589844
F-0.4111667275428772
F0.878389835357666
tp1135
(F-0.5386376976966858
F0.4580993950366974
F0.538648247718811
F-0.45811814069747925
tp1136
tp1137
a((F0.9560748338699341
F0.8904126882553101
F-0.14034870266914368
tp1138
(F0.01099314447492361
F-0.7070245146751404
F-0.010997009463608265
F0.7070181965827942
tp1139
tp1140
a((F0.9560003280639648
F-0.34534505009651184
F0.5250551700592041
tp1141
(F0.7070519328117371
F-0.008809395134449005
F-0.7070518732070923
F0.008809437975287437
tp1142
tp1143
a((F0.9560651779174805
F0.5750925540924072
F0.5435329079627991
tp1144
(F0.49083369970321655
F-0.5090015530586243
F-0.4908389449119568
F0.5089958906173706
tp1145
tp1146
a((F0.9561148881912231
F0.15491192042827606
F0.7673563957214355
tp1147
(F-0.6111670732498169
F0.3556196093559265
F0.6111848950386047
F-0.3556155562400818
tp1148
tp1149
a((F0.9561827182769775
F-0.7522153854370117
F0.30067574977874756
tp1150
(F-0.707001805305481
F0.011459951288998127
F0.7070254683494568
F-0.011499632149934769
tp1151
tp1152
a((F0.9559628963470459
F0.4218348264694214
F-0.44294309616088867
tp1153
(F0.28228235244750977
F-0.6483194828033447
F-0.2822883725166321
F0.6483145356178284
tp1154
tp1155
a((F0.9562363624572754
F-0.840661346912384
F0.24915571510791779
tp1156
(F0.6774680614471436
F-0.20255303382873535
F-0.6774618029594421
F0.20262005925178528
tp1157
tp1158
a((F0.9560939073562622
F0.550748884677887
F0.43099716305732727
tp1159
(F0.48778030276298523
F-0.5119298100471497
F-0.4877875745296478
F0.5119197368621826
tp1160
tp1161
a((F0.9560003280639648
F-0.5233102440834045
F-0.002579927444458008
tp1162
(F-0.4322377145290375
F-0.5596165657043457
F0.43223780393600464
F0.5596163868904114
tp1163
tp1164
a((F0.9559658765792847
F-0.4234757721424103
F-0.24627387523651123
tp1165
(F-0.34055769443511963
F-0.6197022795677185
F0.34056249260902405
F0.6196829080581665
tp1166
tp1167
a((F0.9561936855316162
F-0.810204029083252
F0.3471262753009796
tp1168
(F-0.6750680208206177
F0.21040380001068115
F0.6750714778900146
F-0.21045704185962677
tp1169
tp1170
a((F0.9570473432540894
F0.396823525428772
F-0.07558268308639526
tp1171
(F-0.633700966835022
F0.313808798789978
F0.6337113380432129
F-0.3136194050312042
tp1172
tp1173
a((F0.9560003280639648
F0.09118807315826416
F0.5635547637939453
tp1174
(F0.6037065386772156
F-0.3681555390357971
F-0.6037065386772156
F0.36815547943115234
tp1175
tp1176
a((F0.9561498761177063
F0.19244858622550964
F0.5789771676063538
tp1177
(F-0.6278928518295288
F0.3251781463623047
F0.6279141306877136
F-0.3251670300960541
tp1178
tp1179
a((F0.9559402465820312
F-0.08468371629714966
F-0.7583234906196594
tp1180
(F-0.2855454981327057
F-0.6468890309333801
F0.2855394184589386
F0.6468892097473145
tp1181
tp1182
a((F0.9560046195983887
F0.32342907786369324
F0.839751660823822
tp1183
(F0.451717346906662
F-0.5440139174461365
F-0.4517180323600769
F0.5440139770507812
tp1184
tp1185
a((F0.9560643434524536
F0.23288172483444214
F0.5834487676620483
tp1186
(F-0.6934866905212402
F0.1381106972694397
F0.6934903860092163
F-0.13810396194458008
tp1187
tp1188
a((F0.9559358358383179
F0.36979052424430847
F-0.7533178925514221
tp1189
(F-0.32529982924461365
F-0.6278347373008728
F0.32529833912849426
F0.6278411746025085
tp1190
tp1191
a((F0.9559485912322998
F0.20519934594631195
F-0.6611397862434387
tp1192
(F-0.07087020576000214
F-0.7035467624664307
F0.07086415588855743
F0.703546404838562
tp1193
tp1194
a((F0.9560601711273193
F0.7016350030899048
F0.11894002556800842
tp1195
(F0.44051849842071533
F-0.5531250238418579
F-0.44051650166511536
F0.5531197190284729
tp1196
tp1197
a((F0.9559996724128723
F0.684085488319397
F-0.20224320888519287
tp1198
(F-0.08576541393995285
F-0.7018862962722778
F0.08576543629169464
F0.7018862962722778
tp1199
tp1200
a((F0.9560009837150574
F-0.5689870119094849
F-0.364116907119751
tp1201
(F-0.5302474498748779
F-0.4678010642528534
F0.5302474498748779
F0.4678008258342743
tp1202
tp1203
a((F0.956020176410675
F-0.3713151514530182
F-0.15130409598350525
tp1204
(F-0.3786703646183014
F-0.5971729755401611
F0.3786828815937042
F0.5971537828445435
tp1205
tp1206
a((F0.956072986125946
F0.23864394426345825
F0.5120825171470642
tp1207
(F0.6951262950897217
F0.12961143255233765
F-0.6951255798339844
F-0.12961767613887787
tp1208
tp1209
a((F0.9560554623603821
F0.5714443922042847
F0.25749969482421875
tp1210
(F0.6192734241485596
F-0.3413260877132416
F-0.619270384311676
F0.3413223922252655
tp1211
tp1212
a((F0.9560509920120239
F0.6882316470146179
F-0.020564258098602295
tp1213
(F0.5240799188613892
F-0.474702388048172
F-0.5240771770477295
F0.47470107674598694
tp1214
tp1215
a((F0.9560025930404663
F0.3873462677001953
F0.4772302508354187
tp1216
(F-0.644243061542511
F0.2914634943008423
F0.644243061542511
F-0.291463166475296
tp1217
tp1218
a((F0.9561213850975037
F-0.12783077359199524
F-0.293836772441864
tp1219
(F0.0074726128950715065
F-0.7070841193199158
F-0.007452432531863451
F0.7070505619049072
tp1220
tp1221
a((F0.9559983015060425
F0.6625956296920776
F0.1044258326292038
tp1222
(F0.03447267785668373
F-0.7062659859657288
F-0.034472450613975525
F0.7062659859657288
tp1223
tp1224
a((F0.955999493598938
F0.631503164768219
F-0.04056572914123535
tp1225
(F0.25873976945877075
F-0.6580682396888733
F-0.25873976945877075
F0.6580682396888733
tp1226
tp1227
a((F0.9559497833251953
F-0.051633089780807495
F-0.5496017336845398
tp1228
(F-0.22402352094650269
F-0.6706857681274414
F0.22401486337184906
F0.6706798672676086
tp1229
tp1230
a((F0.9560515880584717
F0.7490670680999756
F0.017981335520744324
tp1231
(F0.43662020564079285
F-0.556206226348877
F-0.4366181790828705
F0.5562033653259277
tp1232
tp1233
a((F0.9561973214149475
F0.17802515625953674
F0.44107890129089355
tp1234
(F-0.6917043924331665
F0.1467519849538803
F0.6917220950126648
F-0.1467297226190567
tp1235
tp1236
a((F0.9560967683792114
F0.41706597805023193
F0.7614837884902954
tp1237
(F0.36705341935157776
F-0.6043705940246582
F-0.367069810628891
F0.6043739318847656
tp1238
tp1239
a((F0.9560679197311401
F0.6372885704040527
F0.3705708980560303
tp1240
(F0.48044508695602417
F-0.5188207626342773
F-0.4804475009441376
F0.5188137888908386
tp1241
tp1242
a((F0.9561023116111755
F-0.3284657597541809
F-0.06431746482849121
tp1243
(F-0.34203723073005676
F-0.6188805103302002
F0.34206873178482056
F0.6188591718673706
tp1244
tp1245
a((F0.9560002088546753
F-0.4202369749546051
F0.3379104733467102
tp1246
(F0.6605324745178223
F0.25238245725631714
F-0.6605324149131775
F-0.2523824870586395
tp1247
tp1248
a((F0.9562525749206543
F-0.6453992128372192
F-0.3565453290939331
tp1249
(F-0.5851526260375977
F-0.3970043659210205
F0.5851708054542542
F0.3969371020793915
tp1250
tp1251
a((F0.9560713171958923
F0.6773337125778198
F0.3043018579483032
tp1252
(F0.44073909521102905
F-0.5529487133026123
F-0.4407411515712738
F0.5529412031173706
tp1253
tp1254
a((F0.956791341304779
F-0.23802468180656433
F0.28347891569137573
tp1255
(F-0.6942689418792725
F-0.13386233150959015
F0.6943679451942444
F0.13388291001319885
tp1256
tp1257
a((F0.9563400149345398
F-0.5727277994155884
F0.2256554514169693
tp1258
(F-0.6860707402229309
F-0.17109210789203644
F0.6861308217048645
F0.17105259001255035
tp1259
tp1260
a((F0.9560003280639648
F-0.4231675863265991
F0.2860991358757019
tp1261
(F0.6553623080253601
F0.2655189037322998
F-0.6553623080253601
F-0.2655189037322998
tp1262
tp1263
a((F0.9560003876686096
F-0.06442397832870483
F0.6012921333312988
tp1264
(F0.7056388258934021
F0.045539624989032745
F-0.7056388258934021
F-0.045539624989032745
tp1265
tp1266
a((F0.9559657573699951
F-0.43217751383781433
F-0.291565477848053
tp1267
(F-0.1944776177406311
F-0.6798426508903503
F0.19448179006576538
F0.6798302531242371
tp1268
tp1269
a((F0.9560002684593201
F-0.17552459239959717
F0.43008267879486084
tp1270
(F-0.6418430209159851
F-0.2967109680175781
F0.6418431997299194
F0.2967110574245453
tp1271
tp1272
a((F0.9559997916221619
F0.5270412564277649
F-0.3057103753089905
tp1273
(F0.06646578758955002
F-0.703976035118103
F-0.06646578758955002
F0.703976035118103
tp1274
tp1275
a((F0.9558805227279663
F0.3955918848514557
F-0.3364497423171997
tp1276
(F-0.059108275920152664
F-0.7046275734901428
F0.05909710004925728
F0.704637348651886
tp1277
tp1278
a((F0.9560761451721191
F-0.38815584778785706
F0.41875702142715454
tp1279
(F-0.5430337190628052
F-0.4528854787349701
F0.5430469512939453
F0.45288974046707153
tp1280
tp1281
a((F0.9559299945831299
F0.7181072235107422
F-0.44802629947662354
tp1282
(F-0.13923977315425873
F-0.6932582855224609
F0.13924169540405273
F0.6932655572891235
tp1283
tp1284
a((F0.9560002684593201
F-0.2755342721939087
F0.3953147530555725
tp1285
(F-0.7070844173431396
F0.005617593415081501
F0.7070844769477844
F-0.005617721471935511
tp1286
tp1287
a((F0.9565517902374268
F-0.6688570976257324
F0.0069165825843811035
tp1288
(F-0.6871829628944397
F-0.16662222146987915
F0.6872320175170898
F0.16651998460292816
tp1289
tp1290
a((F0.9560538530349731
F-0.03140461444854736
F-0.39017999172210693
tp1291
(F-0.20606248080730438
F-0.676429808139801
F0.2060573846101761
F0.6764033436775208
tp1292
tp1293
a((F0.9560574889183044
F0.571967363357544
F0.010032564401626587
tp1294
(F0.6699500679969788
F-0.22620882093906403
F-0.6699442267417908
F0.2262108325958252
tp1295
tp1296
a((F0.955998957157135
F0.364427775144577
F-0.1592942178249359
tp1297
(F-0.5409378409385681
F0.4553995430469513
F0.5409472584724426
F-0.4553828835487366
tp1298
tp1299
a((F0.9560571312904358
F0.8356212973594666
F-0.25905171036720276
tp1300
(F0.044818416237831116
F-0.7056875824928284
F-0.044819265604019165
F0.7056823968887329
tp1301
tp1302
a((F0.9561823010444641
F-0.8376249670982361
F0.149674654006958
tp1303
(F-0.7037930488586426
F-0.06829480826854706
F0.7038131356239319
F0.06825137883424759
tp1304
tp1305
a((F0.9561072587966919
F-0.3480929136276245
F0.4346485733985901
tp1306
(F-0.5638630390167236
F-0.42666688561439514
F0.563882052898407
F0.426673948764801
tp1307
tp1308
a((F0.9560753107070923
F0.29959920048713684
F0.5037289261817932
tp1309
(F-0.6715176701545715
F0.2215028703212738
F0.6715214252471924
F-0.22149404883384705
tp1310
tp1311
a((F0.9570359587669373
F-0.27310073375701904
F0.34043088555336
tp1312
(F-0.7057703733444214
F0.042464371770620346
F0.7058904767036438
F-0.04247001186013222
tp1313
tp1314
a((F0.9562164545059204
F-0.8212363719940186
F0.17815235257148743
tp1315
(F-0.7069216370582581
F0.01580273173749447
F0.7069373726844788
F-0.015858139842748642
tp1316
tp1317
a((F0.9559994339942932
F0.28761446475982666
F0.3476026952266693
tp1318
(F0.6089230179786682
F-0.3594616949558258
F-0.6089229583740234
F0.3594617247581482
tp1319
tp1320
a((F0.9559962153434753
F-0.08326013386249542
F-0.749382495880127
tp1321
(F-0.21155443787574768
F-0.6747183203697205
F0.21155408024787903
F0.6747182607650757
tp1322
tp1323
a((F0.9560045599937439
F-0.4159832298755646
F-0.01874716579914093
tp1324
(F-0.3966105878353119
F-0.5854085683822632
F0.3966289460659027
F0.5853908658027649
tp1325
tp1326
a((F0.957075297832489
F0.3466785252094269
F0.37237730622291565
tp1327
(F-0.6269239783287048
F0.3269939720630646
F0.6270503401756287
F-0.32687774300575256
tp1328
tp1329
a((F0.9561107158660889
F0.5953705906867981
F0.6604623794555664
tp1330
(F0.2764975130558014
F-0.6508023738861084
F-0.27651458978652954
F0.6508033871650696
tp1331
tp1332
a((F0.9559757113456726
F0.19329074025154114
F-0.40841206908226013
tp1333
(F-0.020094063133001328
F-0.7068260312080383
F0.020083555951714516
F0.7068166136741638
tp1334
tp1335
a((F0.9560003280639648
F-0.6930716037750244
F0.4311950206756592
tp1336
(F0.6965022087097168
F-0.12200257182121277
F-0.6965022087097168
F0.12200257182121277
tp1337
tp1338
a((F0.9560003876686096
F-0.06946814060211182
F0.6364662647247314
tp1339
(F0.6195458769798279
F-0.34082671999931335
F-0.6195458769798279
F0.34082669019699097
tp1340
tp1341
a((F0.9561076164245605
F-0.5764402151107788
F0.2432073950767517
tp1342
(F-0.5973578095436096
F-0.37835317850112915
F0.5973825454711914
F0.3783472180366516
tp1343
tp1344
a((F0.9560003280639648
F-0.16660469770431519
F0.5921856760978699
tp1345
(F-0.6919811367988586
F0.14547178149223328
F0.6919811964035034
F-0.14547181129455566
tp1346
tp1347
a((F0.9561216831207275
F-0.03080850839614868
F0.598203182220459
tp1348
(F-0.6981605291366577
F0.11206718534231186
F0.6981803178787231
F-0.1120588555932045
tp1349
tp1350
a((F0.9560002684593201
F-0.3532039523124695
F0.7433708906173706
tp1351
(F0.6205364465713501
F-0.3390200734138489
F-0.6205364465713501
F0.3390200436115265
tp1352
tp1353
a((F0.9569634795188904
F0.3796175718307495
F0.2432275414466858
tp1354
(F-0.6432791352272034
F0.2935503125190735
F0.6433725357055664
F-0.2934141159057617
tp1355
tp1356
a((F0.9560001492500305
F0.01771724224090576
F-0.5201089978218079
tp1357
(F0.3339632451534271
F-0.6232724785804749
F-0.33396321535110474
F0.6232724785804749
tp1358
tp1359
a((F0.9560306668281555
F0.3057514429092407
F-0.20898951590061188
tp1360
(F-0.5504927635192871
F0.4438081979751587
F0.5504990816116333
F-0.44378238916397095
tp1361
tp1362
a((F0.9559730291366577
F-0.14943552017211914
F-0.461308091878891
tp1363
(F-0.0623289979994297
F-0.7043619751930237
F0.0623277947306633
F0.7043469548225403
tp1364
tp1365
a((F0.9560752511024475
F-0.38238266110420227
F0.5471504926681519
tp1366
(F-0.6821941137313843
F-0.18601588904857635
F0.6822072267532349
F0.18601781129837036
tp1367
tp1368
a((F0.9559687376022339
F0.05793952941894531
F-0.47560274600982666
tp1369
(F-0.0730101615190506
F-0.7033336162567139
F0.07300205528736115
F0.7033222913742065
tp1370
tp1371
a((F0.9560001492500305
F-0.5002990961074829
F0.1089373528957367
tp1372
(F-0.43503060936927795
F-0.5574480891227722
F0.43503057956695557
F0.5574480891227722
tp1373
tp1374
a((F0.9560539126396179
F0.6633009910583496
F-0.18730288743972778
tp1375
(F0.34637129306793213
F-0.61646568775177
F-0.3463669717311859
F0.6164631247520447
tp1376
tp1377
a((F0.9559459686279297
F0.4275014400482178
F-0.24124211072921753
tp1378
(F0.24412234127521515
F-0.6636282801628113
F-0.2441333383321762
F0.6636269688606262
tp1379
tp1380
a((F0.956965446472168
F0.17493391036987305
F-0.3939441442489624
tp1381
(F0.50133216381073
F-0.4987808167934418
F-0.5012522339820862
F0.49862828850746155
tp1382
tp1383
a((F0.9560042023658752
F0.4480203688144684
F0.5124692916870117
tp1384
(F0.41524097323417664
F-0.5723415017127991
F-0.415241539478302
F0.5723413228988647
tp1385
tp1386
a((F0.956134021282196
F-0.7211112976074219
F0.457276314496994
tp1387
(F-0.7015132308006287
F0.08867505937814713
F0.7015325427055359
F-0.08870159834623337
tp1388
tp1389
a((F0.9560668468475342
F0.8316421508789062
F0.10786128044128418
tp1390
(F0.30433955788612366
F-0.6382638812065125
F-0.3043403923511505
F0.6382583379745483
tp1391
tp1392
a((F0.9559552073478699
F-0.17260833084583282
F-0.5913174152374268
tp1393
(F-0.18031801283359528
F-0.6837328672409058
F0.18031305074691772
F0.6837266087532043
tp1394
tp1395
a((F0.957018256187439
F-0.0784633457660675
F0.3739284873008728
tp1396
(F-0.7044395208358765
F0.06074889749288559
F0.7045497298240662
F-0.06069831922650337
tp1397
tp1398
a((F0.9561851024627686
F-0.7283457517623901
F-0.30683469772338867
tp1399
(F-0.6226290464401245
F-0.33517417311668396
F0.622642457485199
F0.33512336015701294
tp1400
tp1401
a((F0.9559489488601685
F0.3521777391433716
F-0.442073792219162
tp1402
(F0.18487213551998138
F-0.682512640953064
F-0.1848805993795395
F0.6825085878372192
tp1403
tp1404
a((F0.9560530781745911
F0.5277947187423706
F0.4774075448513031
tp1405
(F0.6380774974822998
F-0.3047265410423279
F-0.6380773186683655
F0.3047228753566742
tp1406
tp1407
a((F0.9560006260871887
F-0.07028678059577942
F0.37687429785728455
tp1408
(F0.7021876573562622
F0.0832618698477745
F-0.7021876573562622
F-0.0832618996500969
tp1409
tp1410
a((F0.9560016989707947
F0.20140665769577026
F0.5735659003257751
tp1411
(F-0.5917021036148071
F0.38715454936027527
F0.5917022824287415
F-0.3871544599533081
tp1412
tp1413
a((F0.9559305906295776
F0.7273880243301392
F-0.4471884071826935
tp1414
(F-0.08305241912603378
F-0.702208936214447
F0.08305295556783676
F0.702215850353241
tp1415
tp1416
a((F0.9560003280639648
F-0.679164707660675
F0.007346540689468384
tp1417
(F0.6193421483039856
F0.34119686484336853
F-0.6193421483039856
F-0.34119680523872375
tp1418
tp1419
a((F0.9564614295959473
F-0.5903155207633972
F0.1894097924232483
tp1420
(F-0.6924619078636169
F-0.14302858710289001
F0.6925311088562012
F0.14296820759773254
tp1421
tp1422
a((F0.9560877084732056
F0.31972748041152954
F0.46368902921676636
tp1423
(F-0.6546229720115662
F0.26733657717704773
F0.6546273231506348
F-0.2673259377479553
tp1424
tp1425
a((F0.9561110734939575
F-0.8174434304237366
F0.06290610134601593
tp1426
(F-0.6478034853935242
F-0.2834508419036865
F0.6478205919265747
F0.28343379497528076
tp1427
tp1428
a((F0.9558872580528259
F0.10865539312362671
F-0.5147386789321899
tp1429
(F-0.35229483246803284
F-0.6130967140197754
F0.3522844910621643
F0.6131040453910828
tp1430
tp1431
a((F0.9559996128082275
F0.42790621519088745
F-0.7232241630554199
tp1432
(F-0.3219466209411621
F-0.6295636892318726
F0.3219466209411621
F0.6295636892318726
tp1433
tp1434
a((F0.9559997320175171
F0.4932754337787628
F0.21490928530693054
tp1435
(F0.3586360812187195
F-0.6094096899032593
F-0.3586360812187195
F0.6094096899032593
tp1436
tp1437
a((F0.9559995532035828
F0.6191441416740417
F-0.17323842644691467
tp1438
(F0.32745006680488586
F-0.6267188191413879
F-0.32745009660720825
F0.6267188191413879
tp1439
tp1440
a((F0.9560004472732544
F-0.31319868564605713
F0.19958049058914185
tp1441
(F0.5626753568649292
F0.4282480776309967
F-0.5626753568649292
F-0.4282480776309967
tp1442
tp1443
a((F0.9560457468032837
F0.4868852496147156
F-0.2488684505224228
tp1444
(F0.46851998567581177
F-0.5296134352684021
F-0.46851301193237305
F0.529617190361023
tp1445
tp1446
a((F0.9565114974975586
F-0.24553406238555908
F0.5230108499526978
tp1447
(F-0.6944541931152344
F0.1329416036605835
F0.6945381760597229
F-0.13295306265354156
tp1448
tp1449
a((F0.9559999108314514
F-0.12096089124679565
F0.45559486746788025
tp1450
(F0.6136825084686279
F0.3512747287750244
F-0.6136823296546936
F-0.3512745797634125
tp1451
tp1452
a((F0.955940306186676
F0.42604508996009827
F-0.7936391234397888
tp1453
(F-0.3693735599517822
F-0.6029592752456665
F0.3693733811378479
F0.6029648184776306
tp1454
tp1455
a((F0.9560436606407166
F-0.483275830745697
F-0.3558574616909027
tp1456
(F-0.10897306352853775
F-0.6986562013626099
F0.10897163301706314
F0.6986626386642456
tp1457
tp1458
a((F0.9570173621177673
F0.10571831464767456
F0.4761155843734741
tp1459
(F-0.5559225082397461
F0.43692129850387573
F0.5560246706008911
F-0.4369056820869446
tp1460
tp1461
a((F0.955951452255249
F-0.3107815980911255
F-0.6649113893508911
tp1462
(F-0.2761780619621277
F-0.6509442925453186
F0.2761740982532501
F0.6509416699409485
tp1463
tp1464
a((F0.956041693687439
F-0.41874808073043823
F-0.4148216247558594
tp1465
(F-0.02110421285033226
F-0.7067885994911194
F0.021102575585246086
F0.7067950367927551
tp1466
tp1467
a((F0.9559357166290283
F-0.5680698156356812
F-0.4630286693572998
tp1468
(F-0.36860567331314087
F-0.6034348607063293
F0.3686026632785797
F0.6034305095672607
tp1469
tp1470
a((F0.9559533596038818
F0.5137799382209778
F-0.27421867847442627
tp1471
(F0.3711321949958801
F-0.6018797755241394
F-0.3711390793323517
F0.6018782258033752
tp1472
tp1473
a((F0.9561243653297424
F-0.08574873208999634
F0.6306314468383789
tp1474
(F-0.7058363556861877
F0.04220911115407944
F0.7058559060096741
F-0.042200684547424316
tp1475
tp1476
a((F0.9559206962585449
F0.17148655652999878
F-0.8387593626976013
tp1477
(F-0.3566298186779022
F-0.610584020614624
F0.35662558674812317
F0.6105901598930359
tp1478
tp1479
a((F0.9558696746826172
F0.5352588891983032
F-0.3878180682659149
tp1480
(F-0.14506854116916656
F-0.6920582056045532
F0.1450706571340561
F0.6920729875564575
tp1481
tp1482
a((F0.9560001492500305
F0.07564425468444824
F0.3130698502063751
tp1483
(F0.6950474381446838
F-0.1300351619720459
F-0.6950474381446838
F0.1300351619720459
tp1484
tp1485
a((F0.9560653567314148
F-0.32581213116645813
F-0.139229416847229
tp1486
(F-0.21195630729198456
F-0.6745990514755249
F0.21198180317878723
F0.6745771169662476
tp1487
tp1488
a((F0.9562429189682007
F-0.5196415781974792
F-0.043183088302612305
tp1489
(F-0.44589096307754517
F-0.5487905144691467
F0.4459480047225952
F0.5487629175186157
tp1490
tp1491
a((F0.9560110569000244
F-0.2227223515510559
F-0.3447742462158203
tp1492
(F0.0346369706094265
F-0.706274151802063
F-0.03462149575352669
F0.7062425017356873
tp1493
tp1494
a((F0.956000030040741
F-0.07068011164665222
F0.5131970047950745
tp1495
(F0.6610210537910461
F0.25110021233558655
F-0.6610209345817566
F-0.2511000335216522
tp1496
tp1497
a((F0.956061840057373
F0.5114729404449463
F0.2747753858566284
tp1498
(F0.6074780821800232
F-0.36190375685691833
F-0.6074751019477844
F0.3618979752063751
tp1499
tp1500
a((F0.9560001492500305
F0.05303776264190674
F0.5057985186576843
tp1501
(F0.7064865827560425
F0.02961043082177639
F-0.7064865231513977
F-0.029610419645905495
tp1502
tp1503
a((F0.9559277892112732
F0.08861025422811508
F-0.47426655888557434
tp1504
(F-0.2825290262699127
F-0.6482136249542236
F0.2825169563293457
F0.648213267326355
tp1505
tp1506
a((F0.9559120535850525
F0.47207263112068176
F-0.6006889939308167
tp1507
(F-0.20422957837581635
F-0.6769669651985168
F0.2042272686958313
F0.6769765615463257
tp1508
tp1509
a((F0.9560003280639648
F-0.40263932943344116
F0.4353146255016327
tp1510
(F-0.6410623788833618
F-0.2983939051628113
F0.6410624384880066
F0.2983938455581665
tp1511
tp1512
a((F0.9559997320175171
F0.5707722902297974
F-0.436550498008728
tp1513
(F-0.209819495677948
F-0.6752597093582153
F0.20981961488723755
F0.6752597689628601
tp1514
tp1515
a((F0.9560646414756775
F0.5941702723503113
F-0.28299182653427124
tp1516
(F0.3175593614578247
F-0.6317910552024841
F-0.31755486130714417
F0.6317873001098633
tp1517
tp1518
a((F0.956985592842102
F0.4358644485473633
F0.28493326902389526
tp1519
(F-0.6034181714057922
F0.368606299161911
F0.6035229563713074
F-0.3684777617454529
tp1520
tp1521
a((F0.9560002684593201
F-0.4181097745895386
F0.4872158169746399
tp1522
(F0.6703172922134399
F-0.22511041164398193
F-0.6703172922134399
F0.22511041164398193
tp1523
tp1524
a((F0.9560571908950806
F0.6936122179031372
F0.41206902265548706
tp1525
(F0.49786272644996643
F-0.5021297335624695
F-0.4978637397289276
F0.50212562084198
tp1526
tp1527
as.