(dp0
S'gripper_link'
p1
I73
sS'robot'
p2
S'pr2'
p3
sS'filename'
p4
S'top_leftarm_ir.pickle'
p5
sS'carry_conf'
p6
(lp7
F0.67717021
aF-0.34313199
aF1.2
aF-1.46688405
aF1.24223229
aF-1.95442826
aF2.22254125
asS'arg'
p8
S'leftarm'
p9
sS'grasp_type'
p10
S'top'
p11
sS'gripper_from_base'
p12
(lp13
((F0.9166942238807678
F-0.20724867284297943
F-0.6731334924697876
tp14
(F0.21881860494613647
F-0.6724468469619751
F-0.21881219744682312
F0.6723503470420837
tp15
tp16
a((F0.9160004258155823
F-0.43877995014190674
F0.32656797766685486
tp17
(F-0.4836626648902893
F-0.5158200860023499
F0.4836626648902893
F0.5158200860023499
tp18
tp19
a((F0.9158942103385925
F0.7312419414520264
F0.025191277265548706
tp20
(F0.6385048627853394
F-0.30384060740470886
F-0.6384976506233215
F0.30383065342903137
tp21
tp22
a((F0.9170028567314148
F-0.3065629005432129
F-0.07710528373718262
tp23
(F-0.39449402689933777
F-0.5868915319442749
F0.39448973536491394
F0.5867799520492554
tp24
tp25
a((F0.9159414172172546
F0.28390491008758545
F0.2608015239238739
tp26
(F-0.6182762980461121
F0.34311115741729736
F0.6183025240898132
F-0.3430905342102051
tp27
tp28
a((F0.9161801934242249
F-0.5709589123725891
F0.10150390863418579
tp29
(F0.5023855566978455
F0.49761465191841125
F-0.5023851990699768
F-0.4975915849208832
tp30
tp31
a((F0.917086660861969
F-0.5639669299125671
F0.05144662410020828
tp32
(F-0.010733101516962051
F-0.7070432305335999
F0.010843470692634583
F0.7070057988166809
tp33
tp34
a((F0.9158436059951782
F0.010231837630271912
F-0.716484546661377
tp35
(F0.3758525252342224
F-0.5989452004432678
F-0.37583601474761963
F0.5989545583724976
tp36
tp37
a((F0.9161379337310791
F0.706161379814148
F-0.5890381336212158
tp38
(F-0.6585723757743835
F0.25744298100471497
F0.6585825085639954
F-0.2574385106563568
tp39
tp40
a((F0.9163171052932739
F-0.2954893112182617
F0.7922269701957703
tp41
(F-0.3169366121292114
F-0.6320646405220032
F0.3169867694377899
F0.6321115493774414
tp42
tp43
a((F0.9162635207176208
F-0.7471393346786499
F0.10046720504760742
tp44
(F-0.14613981544971466
F-0.6918485760688782
F0.1461719572544098
F0.6918253898620605
tp45
tp46
a((F0.9159071445465088
F0.3574621081352234
F0.36671584844589233
tp47
(F-0.6049909591674805
F0.3660375773906708
F0.605004072189331
F-0.3660227060317993
tp48
tp49
a((F0.9158949255943298
F0.7288902997970581
F0.16099756956100464
tp50
(F0.6176246404647827
F-0.3443029224872589
F-0.6176214814186096
F0.34429505467414856
tp51
tp52
a((F0.9163193106651306
F-0.6229580640792847
F0.48257315158843994
tp53
(F-0.23904985189437866
F-0.6654617786407471
F0.23910768330097198
F0.6654648184776306
tp54
tp55
a((F0.9170243144035339
F-0.22559380531311035
F-0.6322796940803528
tp56
(F0.16868257522583008
F-0.6867749691009521
F-0.16865767538547516
F0.686615526676178
tp57
tp58
a((F0.9157707691192627
F0.49984854459762573
F0.09556633234024048
tp59
(F0.7062379717826843
F-0.03529096022248268
F-0.7062138319015503
F0.03527648374438286
tp60
tp61
a((F0.9161708354949951
F-0.3983578681945801
F-0.6695067286491394
tp62
(F0.1080469861626625
F-0.6988087892532349
F-0.10805746912956238
F0.6987959742546082
tp63
tp64
a((F0.9161255359649658
F-0.794806182384491
F0.13582178950309753
tp65
(F-0.35706445574760437
F-0.6103366017341614
F0.357067734003067
F0.6103252172470093
tp66
tp67
a((F0.9160377383232117
F-0.7281114459037781
F-0.07307207584381104
tp68
(F0.04677129536867142
F-0.7055596709251404
F-0.046766262501478195
F0.7055571675300598
tp69
tp70
a((F0.9161030650138855
F0.5859926342964172
F0.35913997888565063
tp71
(F0.5896379351615906
F-0.3902882933616638
F-0.589637279510498
F0.39029476046562195
tp72
tp73
a((F0.9158695936203003
F0.7143426537513733
F0.0465967059135437
tp74
(F0.6371446847915649
F-0.3066854774951935
F-0.6371363997459412
F0.30667218565940857
tp75
tp76
a((F0.9158849120140076
F0.7418902516365051
F0.2827517092227936
tp77
(F0.6720603704452515
F-0.2198624610900879
F-0.6720559597015381
F0.21985462307929993
tp78
tp79
a((F0.9158612489700317
F0.8304926156997681
F-0.09395396709442139
tp80
(F0.7070225477218628
F-0.011400940828025341
F-0.7070071697235107
F0.011401711963117123
tp81
tp82
a((F0.9161077737808228
F0.01872849464416504
F-0.5171563029289246
tp83
(F-0.14839409291744232
F-0.6913561820983887
F0.14838436245918274
F0.6913667321205139
tp84
tp85
a((F0.9170600175857544
F-0.44881629943847656
F-0.24069204926490784
tp86
(F-0.021219007670879364
F-0.706841230392456
F0.021262207999825478
F0.7067342400550842
tp87
tp88
a((F0.9158200025558472
F0.7182871699333191
F-0.09972479939460754
tp89
(F0.7009661793708801
F-0.09307440370321274
F-0.7009431719779968
F0.09307117015123367
tp90
tp91
a((F0.9163775444030762
F-0.3050847053527832
F0.2649325728416443
tp92
(F-0.6714215278625488
F-0.22179315984249115
F0.671440601348877
F0.22173966467380524
tp93
tp94
a((F0.915978193283081
F0.23367565870285034
F-0.2208024114370346
tp95
(F0.38921865820884705
F-0.5903613567352295
F-0.3892195522785187
F0.5903307795524597
tp96
tp97
a((F0.9161596298217773
F-0.6280948519706726
F0.005945920944213867
tp98
(F0.5569533109664917
F0.43567392230033875
F-0.5569471716880798
F-0.43566158413887024
tp99
tp100
a((F0.9161516427993774
F-0.03348641097545624
F-0.5928608179092407
tp101
(F0.06298653781414032
F-0.7042964696884155
F-0.06300199031829834
F0.7042940258979797
tp102
tp103
a((F0.9160004258155823
F-0.3921126425266266
F0.30785906314849854
tp104
(F-0.569614827632904
F-0.4189736545085907
F0.5696148872375488
F0.41897353529930115
tp105
tp106
a((F0.91615891456604
F-0.49001947045326233
F0.2513640522956848
tp107
(F0.7012478709220886
F0.09085685014724731
F-0.7012450695037842
F-0.09084024280309677
tp108
tp109
a((F0.9158892631530762
F0.6094713807106018
F-0.11954176425933838
tp110
(F0.4421924948692322
F-0.5517920255661011
F-0.4421899914741516
F0.5517783761024475
tp111
tp112
a((F0.9159032106399536
F0.5080127120018005
F0.10277828574180603
tp113
(F-0.5444282293319702
F0.45122507214546204
F0.544433057308197
F-0.45120561122894287
tp114
tp115
a((F0.9161140322685242
F0.87638258934021
F-0.11977842450141907
tp116
(F-0.6692076921463013
F0.22837571799755096
F0.6692155599594116
F-0.22837693989276886
tp117
tp118
a((F0.9159999489784241
F0.09875494241714478
F0.43052029609680176
tp119
(F0.6844576597213745
F-0.17753250896930695
F-0.6844576597213745
F0.17753250896930695
tp120
tp121
a((F0.9161141514778137
F0.8590875864028931
F-0.3596440553665161
tp122
(F-0.6541967988014221
F0.26837000250816345
F0.6542030572891235
F-0.2683699429035187
tp123
tp124
a((F0.9169855713844299
F-0.25505441427230835
F-0.2836638391017914
tp125
(F-0.249126598238945
F-0.6618465185165405
F0.24911589920520782
F0.661692202091217
tp126
tp127
a((F0.9160003662109375
F-0.14995171129703522
F0.6440401077270508
tp128
(F0.665238082408905
F0.23970457911491394
F-0.6652380228042603
F-0.23970457911491394
tp129
tp130
a((F0.9161152839660645
F-0.5596226453781128
F-0.396098792552948
tp131
(F-0.3176669776439667
F-0.631738007068634
F0.317659854888916
F0.6317332983016968
tp132
tp133
a((F0.9159992933273315
F0.04120264947414398
F-0.6682791709899902
tp134
(F0.2534855306148529
F-0.6601098775863647
F-0.25348547101020813
F0.6601098775863647
tp135
tp136
a((F0.9160457253456116
F0.3632960915565491
F0.3343789577484131
tp137
(F0.4255627393722534
F-0.5647077560424805
F-0.4255605936050415
F0.5647119283676147
tp138
tp139
a((F0.9160001277923584
F-0.6590773463249207
F0.47104543447494507
tp140
(F-0.21746277809143066
F-0.6728371977806091
F0.21746280789375305
F0.6728371977806091
tp141
tp142
a((F0.9161615371704102
F-0.6048706769943237
F-0.1462705135345459
tp143
(F-0.3294529318809509
F-0.6256786584854126
F0.3294471204280853
F0.6256608366966248
tp144
tp145
a((F0.9158953428268433
F0.6709721088409424
F-0.24292796850204468
tp146
(F0.49807220697402954
F-0.5019277930259705
F-0.4980660676956177
F0.5019193291664124
tp147
tp148
a((F0.9161466956138611
F-0.507011353969574
F-0.6620263457298279
tp149
(F0.24845954775810242
F-0.6620259881019592
F-0.24845914542675018
F0.6620101928710938
tp150
tp151
a((F0.9160000085830688
F0.13556772470474243
F0.29046592116355896
tp152
(F0.468991756439209
F-0.5291944146156311
F-0.468991756439209
F0.5291944146156311
tp153
tp154
a((F0.9158822298049927
F0.6023707985877991
F-0.4852105975151062
tp155
(F0.5148265957832336
F-0.48472800850868225
F-0.5148157477378845
F0.4847237467765808
tp156
tp157
a((F0.9168823957443237
F-0.4842406213283539
F-0.14686769247055054
tp158
(F-0.20981453359127045
F-0.6753102540969849
F0.20983648300170898
F0.6752055287361145
tp159
tp160
a((F0.9160003066062927
F-0.17379814386367798
F0.7410193681716919
tp161
(F-0.5772306323051453
F-0.4084174335002899
F0.5772306323051453
F0.40841740369796753
tp162
tp163
a((F0.9158293604850769
F0.6621415019035339
F-0.3015524744987488
tp164
(F0.6658951640129089
F-0.23790386319160461
F-0.6658737659454346
F0.23790252208709717
tp165
tp166
a((F0.9165084958076477
F-0.35205161571502686
F0.28649061918258667
tp167
(F-0.6251596808433533
F-0.33042049407958984
F0.6251922845840454
F0.33035191893577576
tp168
tp169
a((F0.916000247001648
F0.08565738797187805
F-0.4633728563785553
tp170
(F-0.08427562564611435
F-0.7020667195320129
F0.08427561819553375
F0.7020667195320129
tp171
tp172
a((F0.9161662459373474
F-0.6084746718406677
F-0.24377068877220154
tp173
(F-0.32728108763694763
F-0.62681645154953
F0.32727155089378357
F0.6268026232719421
tp174
tp175
a((F0.9158353209495544
F0.012993693351745605
F-0.6178640723228455
tp176
(F0.39919453859329224
F-0.5836501717567444
F-0.3991726338863373
F0.5836586356163025
tp177
tp178
a((F0.9162355661392212
F-0.4926643967628479
F0.7318667769432068
tp179
(F-0.2696439027786255
F-0.6536566019058228
F0.26968541741371155
F0.6536781191825867
tp180
tp181
a((F0.9169450402259827
F-0.1331261396408081
F-0.2450714260339737
tp182
(F-0.42435598373413086
F-0.5657056570053101
F0.4242972433567047
F0.5655714869499207
tp183
tp184
a((F0.9158928990364075
F0.3402092456817627
F0.5422770977020264
tp185
(F-0.6628664135932922
F0.24618488550186157
F0.6628718376159668
F-0.2461748570203781
tp186
tp187
a((F0.9164654612541199
F-0.7049784660339355
F0.21014663577079773
tp188
(F-0.09096578508615494
F-0.7012314796447754
F0.09104015678167343
F0.701221227645874
tp189
tp190
a((F0.9161495566368103
F-0.6694002151489258
F-0.16253599524497986
tp191
(F-0.24942947924137115
F-0.661662220954895
F0.24942755699157715
F0.6616448760032654
tp192
tp193
a((F0.9168345928192139
F-0.37290287017822266
F0.03771941363811493
tp194
(F-0.47527557611465454
F-0.523603618144989
F0.47528257966041565
F0.523506224155426
tp195
tp196
a((F0.9162225723266602
F-0.23698508739471436
F-0.256629079580307
tp197
(F0.5152463316917419
F0.4842887818813324
F-0.51522296667099
F-0.4842839241027832
tp198
tp199
a((F0.9158899188041687
F0.42332714796066284
F-0.20553058385849
tp200
(F0.4838436245918274
F-0.5156657099723816
F-0.48383578658103943
F0.515642523765564
tp201
tp202
a((F0.9158285856246948
F0.1579112410545349
F-0.5371235609054565
tp203
(F0.38512852787971497
F-0.5930318832397461
F-0.38510411977767944
F0.5930296182632446
tp204
tp205
a((F0.9163687229156494
F-0.3699362874031067
F0.1837165653705597
tp206
(F-0.6325188279151917
F-0.3161194920539856
F0.6325262188911438
F0.3160678446292877
tp207
tp208
a((F0.9159096479415894
F0.037434935569763184
F0.44978976249694824
tp209
(F-0.5754638910293579
F0.4108755886554718
F0.5755029916763306
F-0.41087567806243896
tp210
tp211
a((F0.9158497452735901
F0.6248401999473572
F-0.049350857734680176
tp212
(F0.6665250062942505
F-0.23613324761390686
F-0.6665081977844238
F0.2361190766096115
tp213
tp214
a((F0.9162799119949341
F-0.3759821951389313
F0.05742785707116127
tp215
(F0.6316093802452087
F0.31794100999832153
F-0.6316004991531372
F-0.3179057240486145
tp216
tp217
a((F0.9159349799156189
F-0.03750533610582352
F-0.5189356803894043
tp218
(F0.33841344714164734
F-0.620878279209137
F-0.33838751912117004
F0.6208705306053162
tp219
tp220
a((F0.9161387085914612
F0.4640098512172699
F-0.5679742097854614
tp221
(F0.3394840955734253
F-0.6202769875526428
F-0.33949390053749084
F0.6202830076217651
tp222
tp223
a((F0.9161651134490967
F-0.5400533676147461
F-0.1859523057937622
tp224
(F-0.41690024733543396
F-0.5711448788642883
F0.4168887734413147
F0.5711315870285034
tp225
tp226
a((F0.916127622127533
F0.7297252416610718
F-0.6385350227355957
tp227
(F-0.6968885660171509
F0.11976367235183716
F0.6968937516212463
F-0.1197580099105835
tp228
tp229
a((F0.9165545701980591
F0.039129674434661865
F0.5839544534683228
tp230
(F-0.679675281047821
F-0.1948687732219696
F0.6797769069671631
F0.1948617845773697
tp231
tp232
a((F0.9162070155143738
F0.38042375445365906
F0.7384400963783264
tp233
(F-0.7014473676681519
F-0.08914729952812195
F0.7014809846878052
F0.08915548026561737
tp234
tp235
a((F0.9160001873970032
F-0.017129361629486084
F0.7098381519317627
tp236
(F-0.5886248350143433
F-0.39181745052337646
F0.5886248350143433
F0.39181745052337646
tp237
tp238
a((F0.9160001277923584
F-0.37297576665878296
F0.5924676656723022
tp239
(F-0.39137354493141174
F-0.5889198780059814
F0.39137354493141174
F0.5889198780059814
tp240
tp241
a((F0.9158974885940552
F0.4208136200904846
F0.4777202904224396
tp242
(F-0.7046231031417847
F0.059213705360889435
F0.7046245336532593
F-0.05919704586267471
tp243
tp244
a((F0.9159080982208252
F0.1879788339138031
F0.4580540060997009
tp245
(F-0.6504908800125122
F0.2772235572338104
F0.6505092978477478
F-0.2772117257118225
tp246
tp247
a((F0.9161451458930969
F-0.36820554733276367
F-0.5101758241653442
tp248
(F-0.15947546064853668
F-0.6888926029205322
F0.15946145355701447
F0.6888880133628845
tp249
tp250
a((F0.9158533215522766
F0.6307004690170288
F0.4781860113143921
tp251
(F0.7068604826927185
F-0.01880740001797676
F-0.7068532109260559
F0.018793286755681038
tp252
tp253
a((F0.9158731698989868
F0.4135572910308838
F0.6352353692054749
tp254
(F0.7056878805160522
F-0.04477911815047264
F-0.7056878805160522
F0.04476771503686905
tp255
tp256
a((F0.9161263704299927
F-0.8566895127296448
F0.2156464010477066
tp257
(F-0.281670480966568
F-0.6485875844955444
F0.28167715668678284
F0.6485784649848938
tp258
tp259
a((F0.9164700508117676
F0.14660672843456268
F0.5229562520980835
tp260
(F-0.7068515419960022
F-0.017217138782143593
F0.7069430947303772
F0.017206285148859024
tp261
tp262
a((F0.9160030484199524
F-0.6370359659194946
F0.4428291916847229
tp263
(F-0.3439101278781891
F-0.6178396940231323
F0.3439105451107025
F0.6178394556045532
tp264
tp265
a((F0.9161465764045715
F-0.7213699817657471
F-0.29778167605400085
tp266
(F-0.15072374045848846
F-0.6908636093139648
F0.1507214456796646
F0.6908494830131531
tp267
tp268
a((F0.9161525368690491
F-0.7268619537353516
F-0.4627847969532013
tp269
(F0.05374440178275108
F-0.705068826675415
F-0.053743138909339905
F0.7050541043281555
tp270
tp271
a((F0.9158830046653748
F0.3037790060043335
F-0.3653266429901123
tp272
(F0.36260074377059937
F-0.6070727109909058
F-0.36258742213249207
F0.6070534586906433
tp273
tp274
a((F0.9161387085914612
F-0.4966745376586914
F-0.7395038604736328
tp275
(F0.37616991996765137
F-0.5987535119056702
F-0.37616539001464844
F0.59874027967453
tp276
tp277
a((F0.917041003704071
F-0.2931440472602844
F-0.06830409169197083
tp278
(F-0.4605163037776947
F-0.5366513729095459
F0.46050184965133667
F0.5365333557128906
tp279
tp280
a((F0.9166851043701172
F-0.32685911655426025
F0.3038819134235382
tp281
(F-0.5775904655456543
F-0.4079068601131439
F0.5776451826095581
F0.40783244371414185
tp282
tp283
a((F0.9161573052406311
F-0.8283011317253113
F0.4574855864048004
tp284
(F-0.11452719569206238
F-0.6977680921554565
F0.11454891413450241
F0.697769284248352
tp285
tp286
a((F0.916293203830719
F-0.7330740094184875
F0.09805309772491455
tp287
(F-0.1295652687549591
F-0.695143461227417
F0.12960270047187805
F0.6951196789741516
tp288
tp289
a((F0.9161087274551392
F0.8911263942718506
F0.008887551724910736
tp290
(F-0.673064112663269
F0.21675007045269012
F0.6730694770812988
F-0.21675272285938263
tp291
tp292
a((F0.9158139824867249
F0.2537878155708313
F-0.6120835542678833
tp293
(F0.47922587394714355
F-0.5199522972106934
F-0.4792035222053528
F0.519957959651947
tp294
tp295
a((F0.9161462783813477
F-0.7026050686836243
F0.40339696407318115
tp296
(F-0.42646628618240356
F-0.5640290975570679
F0.4264777898788452
F0.5640163421630859
tp297
tp298
a((F0.9161199331283569
F-0.4238216280937195
F-0.6896567344665527
tp299
(F0.11541860550642014
F-0.6976273059844971
F-0.11542501300573349
F0.6976185441017151
tp300
tp301
a((F0.9162887334823608
F-0.3148546814918518
F0.7653822302818298
tp302
(F-0.4141919016838074
F-0.5730710625648499
F0.414246141910553
F0.5730923414230347
tp303
tp304
a((F0.9159023761749268
F0.46915873885154724
F-0.03573164343833923
tp305
(F0.4926859736442566
F-0.5072188973426819
F-0.4926893711090088
F0.5071948170661926
tp306
tp307
a((F0.9161252975463867
F-0.8098561763763428
F0.008941732347011566
tp308
(F-0.3050820827484131
F-0.6379117369651794
F0.305083692073822
F0.6379008293151855
tp309
tp310
a((F0.9168489575386047
F-0.4900381863117218
F-0.34573325514793396
tp311
(F0.055142808705568314
F-0.7050021886825562
F-0.05510162189602852
F0.7049077153205872
tp312
tp313
as.